ccopy_reg
_reconstructor
p0
(cneat.population
Population
p1
c__builtin__
object
p2
Ntp3
Rp4
(dp5
S'total_evaluations'
p6
I640
sS'generation'
p7
I19
sS'species'
p8
(lp9
g0
(cneat.species
Species
p10
g2
Ntp11
Rp12
(dp13
S'members'
p14
(lp15
g0
(ccellGenome
CellGenome
p16
g2
Ntp17
Rp18
(dp19
S'outputs'
p20
(lp21
S'apoptosis'
p22
aS'division'
p23
aS'a0'
p24
aS'h0'
p25
asS'inputs'
p26
(lp27
S'stress'
p28
aS'a0t0'
p29
aS'a0t1'
p30
aS'a0t2'
p31
aS'a0t3'
p32
asS'attribute_genes'
p33
(dp34
sS'morphogen_genes'
p35
(dp36
I0
g0
(cneat_custom.genes
MorphogenGene
p37
g2
Ntp38
Rp39
(dp40
S'components'
p41
(dp42
S'activator_diffusion'
p43
g0
(cneat_custom.genes
AttributeGene
p44
g2
Ntp45
Rp46
(dp47
S'max'
p48
F1.0
sS'min'
p49
F0.0
sS'value'
p50
F0.01
sS'ID'
p51
I1
sbsS'activator_decay'
p52
g0
(g44
g2
Ntp53
Rp54
(dp55
g48
F1.0
sg49
F0.0
sg50
F0.02
sg51
I1
sbsS'activator_production'
p56
g0
(g44
g2
Ntp57
Rp58
(dp59
g48
F1.0
sg49
F0.0
sg50
F0.0
sg51
I1
sbsS'inhibitor_diffusion'
p60
g0
(g44
g2
Ntp61
Rp62
(dp63
g48
F1.0
sg49
F0.0
sg50
F0.2
sg51
I1
sbsS'inhibitor_decay'
p64
g0
(g44
g2
Ntp65
Rp66
(dp67
g48
F1.0
sg49
F0.0
sg50
F0.02
sg51
I1
sbsS'inhibitor_production'
p68
g0
(g44
g2
Ntp69
Rp70
(dp71
g48
F1.0
sg49
F0.0
sg50
F0.0
sg51
I1
sbssg51
I0
sbssS'morphogen_thresholds'
p72
I4
sS'num_morphogens'
p73
I1
sS'cell_types'
p74
I1
sS'parent2_id'
p75
I456
sS'parent1_id'
p76
I450
sS'species_id'
p77
I1
sS'fitness'
p78
F-4.0
sS'node_genes'
p79
(dp80
I0
g0
(cneat.genes
NodeGene
p81
g2
Ntp82
Rp83
(dp84
S'activation_type'
p85
S'sigmoid'
p86
sS'response'
p87
F4.924273
sS'bias'
p88
F0.0
sS'type'
p89
S'INPUT'
p90
sg51
I0
sbsI1
g0
(g81
g2
Ntp91
Rp92
(dp93
g85
g86
sg87
F4.924273
sg88
F0.0
sg89
g90
sg51
I1
sbsI2
g0
(g81
g2
Ntp94
Rp95
(dp96
g85
g86
sg87
F4.924273
sg88
F0.0
sg89
g90
sg51
I2
sbsI3
g0
(g81
g2
Ntp97
Rp98
(dp99
g85
g86
sg87
F4.924273
sg88
F0.0
sg89
g90
sg51
I3
sbsI4
g0
(g81
g2
Ntp100
Rp101
(dp102
g85
g86
sg87
F4.924273
sg88
F0.0
sg89
g90
sg51
I4
sbsI5
g0
(g81
g2
Ntp103
Rp104
(dp105
g85
S'sigmoid'
p106
sg87
F4.787616987974218
sg88
F-0.026989546366814055
sg89
S'OUTPUT'
p107
sg51
I5
sbsI6
g0
(g81
g2
Ntp108
Rp109
(dp110
g85
g106
sg87
F3.7391481755060467
sg88
F0.18227046264697036
sg89
g107
sg51
I6
sbsI7
g0
(g81
g2
Ntp111
Rp112
(dp113
g85
g106
sg87
F5.198121403631478
sg88
F-0.16526982394142364
sg89
g107
sg51
I7
sbsI8
g0
(g81
g2
Ntp114
Rp115
(dp116
g85
g106
sg87
F7.3508952361620485
sg88
F-0.34444283402230513
sg89
g107
sg51
I8
sbssS'conn_genes'
p117
(dp118
(I2
I5
tp119
g0
(cneat.genes
ConnectionGene
p120
g2
Ntp121
Rp122
(dp123
S'enabled'
p124
I00
sS'weight'
p125
F0.6505932323291698
sS'out_node_id'
p126
I5
sS'in_node_id'
p127
I2
sS'innovation_id'
p128
I4
sbs(I2
I6
tp129
g0
(g120
g2
Ntp130
Rp131
(dp132
g124
I01
sg125
F1.2664249620227213
sg126
I6
sg127
I2
sg128
I5
sbs(I2
I7
tp133
g0
(g120
g2
Ntp134
Rp135
(dp136
g124
I00
sg125
F-0.29581321632671076
sg126
I7
sg127
I2
sg128
I6
sbs(I2
I8
tp137
g0
(g120
g2
Ntp138
Rp139
(dp140
g124
I01
sg125
F-1.412517111083659
sg126
I8
sg127
I2
sg128
I7
sbssS'num_outputs'
p141
I4
sS'num_inputs'
p142
I5
sS'config'
p143
g0
(cneat.config
Config
p144
g2
Ntp145
Rp146
(dp147
S'checkpoint_gen_interval'
p148
NsS'checkpoint_time_interval'
p149
NsS'save_best'
p150
I00
sS'report'
p151
I01
sS'collect_statistics'
p152
I01
sS'reproduction_type'
p153
cneat.reproduction
DefaultReproduction
p154
sS'stagnation_type'
p155
cneat.stagnation
DefaultStagnation
p156
sS'conn_gene_type'
p157
g120
sS'node_gene_type'
p158
g81
sS'weight_coefficient'
p159
F0.5
sS'disjoint_coefficient'
p160
F1.0
sS'excess_coefficient'
p161
F1.0
sS'compatibility_threshold'
p162
F3.0
sS'reset_on_extinction'
p163
I01
sS'prob_toggle_link'
p164
F0.01
sS'prob_mutate_activation'
p165
F0.0
sS'weight_mutation_power'
p166
F0.5
sS'prob_replace_weight'
p167
F0.1
sS'prob_mutate_weight'
p168
F0.8
sS'response_mutation_power'
p169
F0.5
sS'prob_mutate_response'
p170
F0.8
sS'bias_mutation_power'
p171
F0.5
sS'prob_mutate_bias'
p172
F0.8
sS'prob_delete_node'
p173
F0.05
sS'prob_delete_conn'
p174
F0.05
sS'prob_add_node'
p175
F0.1
sS'prob_add_conn'
p176
F0.1
sS'max_fitness_threshold'
p177
F0.95
sS'pop_size'
p178
I32
sS'genotype'
p179
g16
sS'activation_functions'
p180
(lp181
g106
asS'weight_stdev'
p182
F1.0
sS'feedforward'
p183
I00
sS'min_weight'
p184
F-30.0
sS'max_weight'
p185
F30.0
sS'connection_fraction'
p186
NsS'initial_connection'
p187
S'fs_neat'
p188
sS'hidden_nodes'
p189
I0
sS'output_nodes'
p190
I4
sS'input_nodes'
p191
I5
sS'type_config'
p192
(dp193
S'DefaultStagnation'
p194
(lp195
(S'species_fitness_func'
p196
S'mean'
p197
tp198
a(S'max_stagnation'
p199
S'10'
p200
tp201
asS'DefaultReproduction'
p202
(lp203
(S'elitism'
p204
S'5'
p205
tp206
a(S'survival_threshold'
p207
S'0.2'
p208
tp209
assS'registry'
p210
(dp211
S'DefaultStagnation'
p212
g156
sS'DefaultReproduction'
p213
g154
ssbsg51
I465
sbag0
(g16
g2
Ntp214
Rp215
(dp216
g20
(lp217
g22
ag23
aS'a0'
p218
aS'h0'
p219
asg26
(lp220
g28
aS'a0t0'
p221
aS'a0t1'
p222
aS'a0t2'
p223
aS'a0t3'
p224
asg33
(dp225
sg35
(dp226
I0
g0
(g37
g2
Ntp227
Rp228
(dp229
g41
(dp230
g43
g0
(g44
g2
Ntp231
Rp232
(dp233
g48
F1.0
sg49
F0.0
sg50
F0.01
sg51
I1
sbsg52
g0
(g44
g2
Ntp234
Rp235
(dp236
g48
F1.0
sg49
F0.0
sg50
F0.02
sg51
I1
sbsg56
g0
(g44
g2
Ntp237
Rp238
(dp239
g48
F1.0
sg49
F0.0
sg50
F0.0
sg51
I1
sbsg60
g0
(g44
g2
Ntp240
Rp241
(dp242
g48
F1.0
sg49
F0.0
sg50
F0.2
sg51
I1
sbsg64
g0
(g44
g2
Ntp243
Rp244
(dp245
g48
F1.0
sg49
F0.0
sg50
F0.02
sg51
I1
sbsg68
g0
(g44
g2
Ntp246
Rp247
(dp248
g48
F1.0
sg49
F0.0
sg50
F0.0
sg51
I1
sbssg51
I0
sbssg72
I4
sg73
I1
sg74
I1
sg75
I456
sg76
I498
sg77
I1
sg78
F-4.5
sg79
(dp249
I0
g0
(g81
g2
Ntp250
Rp251
(dp252
g85
g86
sg87
F4.924273
sg88
F0.0
sg89
g90
sg51
I0
sbsI1
g0
(g81
g2
Ntp253
Rp254
(dp255
g85
g86
sg87
F4.924273
sg88
F0.0
sg89
g90
sg51
I1
sbsI2
g0
(g81
g2
Ntp256
Rp257
(dp258
g85
g86
sg87
F4.924273
sg88
F0.0
sg89
g90
sg51
I2
sbsI3
g0
(g81
g2
Ntp259
Rp260
(dp261
g85
g86
sg87
F4.924273
sg88
F0.0
sg89
g90
sg51
I3
sbsI4
g0
(g81
g2
Ntp262
Rp263
(dp264
g85
g86
sg87
F4.924273
sg88
F0.0
sg89
g90
sg51
I4
sbsI5
g0
(g81
g2
Ntp265
Rp266
(dp267
g85
g106
sg87
F4.105675598958618
sg88
F-0.7268073604934817
sg89
g107
sg51
I5
sbsI6
g0
(g81
g2
Ntp268
Rp269
(dp270
g85
g106
sg87
F4.096144210434265
sg88
F0.515667754614458
sg89
g107
sg51
I6
sbsI7
g0
(g81
g2
Ntp271
Rp272
(dp273
g85
g106
sg87
F6.76645477738699
sg88
F0.16333323798711136
sg89
g107
sg51
I7
sbsI8
g0
(g81
g2
Ntp274
Rp275
(dp276
g85
g106
sg87
F7.361096442956478
sg88
F-0.6530380078482829
sg89
g107
sg51
I8
sbssg117
(dp277
(I2
I5
tp278
g0
(g120
g2
Ntp279
Rp280
(dp281
g124
I01
sg125
F-0.10941231690499564
sg126
I5
sg127
I2
sg128
I4
sbs(I2
I6
tp282
g0
(g120
g2
Ntp283
Rp284
(dp285
g124
I01
sg125
F1.310334010814926
sg126
I6
sg127
I2
sg128
I5
sbs(I2
I7
tp286
g0
(g120
g2
Ntp287
Rp288
(dp289
g124
I00
sg125
F0.23846689325594647
sg126
I7
sg127
I2
sg128
I6
sbs(I2
I8
tp290
g0
(g120
g2
Ntp291
Rp292
(dp293
g124
I01
sg125
F-1.2461521166553247
sg126
I8
sg127
I2
sg128
I7
sbssg141
I4
sg142
I5
sg143
g146
sg51
I529
sbag0
(g16
g2
Ntp294
Rp295
(dp296
g20
(lp297
g22
ag23
aS'a0'
p298
aS'h0'
p299
asg26
(lp300
g28
aS'a0t0'
p301
aS'a0t1'
p302
aS'a0t2'
p303
aS'a0t3'
p304
asg33
(dp305
sg35
(dp306
I0
g0
(g37
g2
Ntp307
Rp308
(dp309
g41
(dp310
g43
g0
(g44
g2
Ntp311
Rp312
(dp313
g48
F1.0
sg49
F0.0
sg50
F0.01
sg51
I1
sbsg52
g0
(g44
g2
Ntp314
Rp315
(dp316
g48
F1.0
sg49
F0.0
sg50
F0.02
sg51
I1
sbsg56
g0
(g44
g2
Ntp317
Rp318
(dp319
g48
F1.0
sg49
F0.0
sg50
F0.0
sg51
I1
sbsg60
g0
(g44
g2
Ntp320
Rp321
(dp322
g48
F1.0
sg49
F0.0
sg50
F0.2
sg51
I1
sbsg64
g0
(g44
g2
Ntp323
Rp324
(dp325
g48
F1.0
sg49
F0.0
sg50
F0.02
sg51
I1
sbsg68
g0
(g44
g2
Ntp326
Rp327
(dp328
g48
F1.0
sg49
F0.0
sg50
F0.0
sg51
I1
sbssg51
I0
sbssg72
I4
sg73
I1
sg74
I1
sg75
I475
sg76
I456
sg77
I1
sg78
F-5.5
sg79
(dp329
I0
g0
(g81
g2
Ntp330
Rp331
(dp332
g85
g86
sg87
F4.924273
sg88
F0.0
sg89
g90
sg51
I0
sbsI1
g0
(g81
g2
Ntp333
Rp334
(dp335
g85
g86
sg87
F4.924273
sg88
F0.0
sg89
g90
sg51
I1
sbsI2
g0
(g81
g2
Ntp336
Rp337
(dp338
g85
g86
sg87
F4.924273
sg88
F0.0
sg89
g90
sg51
I2
sbsI3
g0
(g81
g2
Ntp339
Rp340
(dp341
g85
g86
sg87
F4.924273
sg88
F0.0
sg89
g90
sg51
I3
sbsI4
g0
(g81
g2
Ntp342
Rp343
(dp344
g85
g86
sg87
F4.924273
sg88
F0.0
sg89
g90
sg51
I4
sbsI5
g0
(g81
g2
Ntp345
Rp346
(dp347
g85
g106
sg87
F4.4279524846109055
sg88
F-0.6324638731180485
sg89
g107
sg51
I5
sbsI6
g0
(g81
g2
Ntp348
Rp349
(dp350
g85
g106
sg87
F4.820859020607312
sg88
F0.36910322632391246
sg89
g107
sg51
I6
sbsI7
g0
(g81
g2
Ntp351
Rp352
(dp353
g85
g106
sg87
F6.755745679034265
sg88
F-0.5270229840626526
sg89
g107
sg51
I7
sbsI8
g0
(g81
g2
Ntp354
Rp355
(dp356
g85
g106
sg87
F6.928784909405852
sg88
F-1.158788466025032
sg89
g107
sg51
I8
sbssg117
(dp357
(I2
I5
tp358
g0
(g120
g2
Ntp359
Rp360
(dp361
g124
I01
sg125
F-0.13083573776634605
sg126
I5
sg127
I2
sg128
I4
sbs(I2
I6
tp362
g0
(g120
g2
Ntp363
Rp364
(dp365
g124
I01
sg125
F1.0401936941231904
sg126
I6
sg127
I2
sg128
I5
sbs(I2
I7
tp366
g0
(g120
g2
Ntp367
Rp368
(dp369
g124
I00
sg125
F0.556889780903692
sg126
I7
sg127
I2
sg128
I6
sbs(I2
I8
tp370
g0
(g120
g2
Ntp371
Rp372
(dp373
g124
I01
sg125
F-1.4049966197510606
sg126
I8
sg127
I2
sg128
I7
sbssg141
I4
sg142
I5
sg143
g146
sg51
I538
sbag0
(g16
g2
Ntp374
Rp375
(dp376
g20
(lp377
g22
ag23
aS'a0'
p378
aS'h0'
p379
asg26
(lp380
g28
aS'a0t0'
p381
aS'a0t1'
p382
aS'a0t2'
p383
aS'a0t3'
p384
asg33
(dp385
sg35
(dp386
I0
g0
(g37
g2
Ntp387
Rp388
(dp389
g41
(dp390
g43
g0
(g44
g2
Ntp391
Rp392
(dp393
g48
F1.0
sg49
F0.0
sg50
F0.01
sg51
I1
sbsg52
g0
(g44
g2
Ntp394
Rp395
(dp396
g48
F1.0
sg49
F0.0
sg50
F0.02
sg51
I1
sbsg56
g0
(g44
g2
Ntp397
Rp398
(dp399
g48
F1.0
sg49
F0.0
sg50
F0.0
sg51
I1
sbsg60
g0
(g44
g2
Ntp400
Rp401
(dp402
g48
F1.0
sg49
F0.0
sg50
F0.2
sg51
I1
sbsg64
g0
(g44
g2
Ntp403
Rp404
(dp405
g48
F1.0
sg49
F0.0
sg50
F0.02
sg51
I1
sbsg68
g0
(g44
g2
Ntp406
Rp407
(dp408
g48
F1.0
sg49
F0.0
sg50
F0.0
sg51
I1
sbssg51
I0
sbssg72
I4
sg73
I1
sg74
I1
sg75
I456
sg76
I456
sg77
I1
sg78
F-5.5
sg79
(dp409
I0
g0
(g81
g2
Ntp410
Rp411
(dp412
g85
g86
sg87
F4.924273
sg88
F0.0
sg89
g90
sg51
I0
sbsI1
g0
(g81
g2
Ntp413
Rp414
(dp415
g85
g86
sg87
F4.924273
sg88
F0.0
sg89
g90
sg51
I1
sbsI2
g0
(g81
g2
Ntp416
Rp417
(dp418
g85
g86
sg87
F4.924273
sg88
F0.0
sg89
g90
sg51
I2
sbsI3
g0
(g81
g2
Ntp419
Rp420
(dp421
g85
g86
sg87
F4.924273
sg88
F0.0
sg89
g90
sg51
I3
sbsI4
g0
(g81
g2
Ntp422
Rp423
(dp424
g85
g86
sg87
F4.924273
sg88
F0.0
sg89
g90
sg51
I4
sbsI5
g0
(g81
g2
Ntp425
Rp426
(dp427
g85
g106
sg87
F4.787616987974218
sg88
F-0.3012463200398042
sg89
g107
sg51
I5
sbsI6
g0
(g81
g2
Ntp428
Rp429
(dp430
g85
g106
sg87
F3.6572602773093235
sg88
F0.3088922145520949
sg89
g107
sg51
I6
sbsI7
g0
(g81
g2
Ntp431
Rp432
(dp433
g85
g106
sg87
F7.069008470543036
sg88
F-0.29298058966514795
sg89
g107
sg51
I7
sbsI8
g0
(g81
g2
Ntp434
Rp435
(dp436
g85
g106
sg87
F8.178365464614801
sg88
F-1.1421931770333604
sg89
g107
sg51
I8
sbssg117
(dp437
(I2
I5
tp438
g0
(g120
g2
Ntp439
Rp440
(dp441
g124
I00
sg125
F-0.034265764094723705
sg126
I5
sg127
I2
sg128
I4
sbs(I2
I6
tp442
g0
(g120
g2
Ntp443
Rp444
(dp445
g124
I01
sg125
F0.7447893455500446
sg126
I6
sg127
I2
sg128
I5
sbs(I2
I7
tp446
g0
(g120
g2
Ntp447
Rp448
(dp449
g124
I00
sg125
F2.3380222481385453
sg126
I7
sg127
I2
sg128
I6
sbs(I2
I8
tp450
g0
(g120
g2
Ntp451
Rp452
(dp453
g124
I01
sg125
F-1.110783859810913
sg126
I8
sg127
I2
sg128
I7
sbssg141
I4
sg142
I5
sg143
g146
sg51
I543
sbag0
(g16
g2
Ntp454
Rp455
(dp456
g20
(lp457
g22
ag23
aS'a0'
p458
aS'h0'
p459
asg26
(lp460
g28
aS'a0t0'
p461
aS'a0t1'
p462
aS'a0t2'
p463
aS'a0t3'
p464
asg33
(dp465
sg35
(dp466
I0
g0
(g37
g2
Ntp467
Rp468
(dp469
g41
(dp470
g43
g0
(g44
g2
Ntp471
Rp472
(dp473
g48
F1.0
sg49
F0.0
sg50
F0.01
sg51
I1
sbsg52
g0
(g44
g2
Ntp474
Rp475
(dp476
g48
F1.0
sg49
F0.0
sg50
F0.02
sg51
I1
sbsg56
g0
(g44
g2
Ntp477
Rp478
(dp479
g48
F1.0
sg49
F0.0
sg50
F0.0
sg51
I1
sbsg60
g0
(g44
g2
Ntp480
Rp481
(dp482
g48
F1.0
sg49
F0.0
sg50
F0.2
sg51
I1
sbsg64
g0
(g44
g2
Ntp483
Rp484
(dp485
g48
F1.0
sg49
F0.0
sg50
F0.02
sg51
I1
sbsg68
g0
(g44
g2
Ntp486
Rp487
(dp488
g48
F1.0
sg49
F0.0
sg50
F0.0
sg51
I1
sbssg51
I0
sbssg72
I4
sg73
I1
sg74
I1
sg75
I465
sg76
I475
sg77
I1
sg78
F-6.0
sg79
(dp489
I0
g0
(g81
g2
Ntp490
Rp491
(dp492
g85
g86
sg87
F4.924273
sg88
F0.0
sg89
g90
sg51
I0
sbsI1
g0
(g81
g2
Ntp493
Rp494
(dp495
g85
g86
sg87
F4.924273
sg88
F0.0
sg89
g90
sg51
I1
sbsI2
g0
(g81
g2
Ntp496
Rp497
(dp498
g85
g86
sg87
F4.924273
sg88
F0.0
sg89
g90
sg51
I2
sbsI3
g0
(g81
g2
Ntp499
Rp500
(dp501
g85
g86
sg87
F4.924273
sg88
F0.0
sg89
g90
sg51
I3
sbsI4
g0
(g81
g2
Ntp502
Rp503
(dp504
g85
g86
sg87
F4.924273
sg88
F0.0
sg89
g90
sg51
I4
sbsI5
g0
(g81
g2
Ntp505
Rp506
(dp507
g85
g106
sg87
F5.288330363375302
sg88
F-1.2463495481270654
sg89
g107
sg51
I5
sbsI6
g0
(g81
g2
Ntp508
Rp509
(dp510
g85
g106
sg87
F3.7391481755060467
sg88
F0.0336092719305372
sg89
g107
sg51
I6
sbsI7
g0
(g81
g2
Ntp511
Rp512
(dp513
g85
g106
sg87
F5.789052478155125
sg88
F-2.049419304052134
sg89
g107
sg51
I7
sbsI8
g0
(g81
g2
Ntp514
Rp515
(dp516
g85
g106
sg87
F7.286821234557991
sg88
F-0.1995222784772907
sg89
g107
sg51
I8
sbssg117
(dp517
(I2
I5
tp518
g0
(g120
g2
Ntp519
Rp520
(dp521
g124
I01
sg125
F-0.13083573776634605
sg126
I5
sg127
I2
sg128
I4
sbs(I2
I6
tp522
g0
(g120
g2
Ntp523
Rp524
(dp525
g124
I01
sg125
F1.4083615469612507
sg126
I6
sg127
I2
sg128
I5
sbs(I2
I7
tp526
g0
(g120
g2
Ntp527
Rp528
(dp529
g124
I00
sg125
F1.4104945094212948
sg126
I7
sg127
I2
sg128
I6
sbs(I2
I8
tp530
g0
(g120
g2
Ntp531
Rp532
(dp533
g124
I01
sg125
F-2.155427790574002
sg126
I8
sg127
I2
sg128
I7
sbssg141
I4
sg142
I5
sg143
g146
sg51
I542
sbag0
(g16
g2
Ntp534
Rp535
(dp536
g20
(lp537
g22
ag23
aS'a0'
p538
aS'h0'
p539
asg26
(lp540
g28
aS'a0t0'
p541
aS'a0t1'
p542
aS'a0t2'
p543
aS'a0t3'
p544
asg33
(dp545
sg35
(dp546
I0
g0
(g37
g2
Ntp547
Rp548
(dp549
g41
(dp550
g43
g0
(g44
g2
Ntp551
Rp552
(dp553
g48
F1.0
sg49
F0.0
sg50
F0.01
sg51
I1
sbsg52
g0
(g44
g2
Ntp554
Rp555
(dp556
g48
F1.0
sg49
F0.0
sg50
F0.02
sg51
I1
sbsg56
g0
(g44
g2
Ntp557
Rp558
(dp559
g48
F1.0
sg49
F0.0
sg50
F0.0
sg51
I1
sbsg60
g0
(g44
g2
Ntp560
Rp561
(dp562
g48
F1.0
sg49
F0.0
sg50
F0.2
sg51
I1
sbsg64
g0
(g44
g2
Ntp563
Rp564
(dp565
g48
F1.0
sg49
F0.0
sg50
F0.02
sg51
I1
sbsg68
g0
(g44
g2
Ntp566
Rp567
(dp568
g48
F1.0
sg49
F0.0
sg50
F0.0
sg51
I1
sbssg51
I0
sbssg72
I4
sg73
I1
sg74
I1
sg75
I465
sg76
I538
sg77
I1
sg78
Nsg79
(dp569
I0
g0
(g81
g2
Ntp570
Rp571
(dp572
g85
g86
sg87
F4.924273
sg88
F0.0
sg89
g90
sg51
I0
sbsI1
g0
(g81
g2
Ntp573
Rp574
(dp575
g85
g86
sg87
F4.924273
sg88
F0.0
sg89
g90
sg51
I1
sbsI2
g0
(g81
g2
Ntp576
Rp577
(dp578
g85
g86
sg87
F4.924273
sg88
F0.0
sg89
g90
sg51
I2
sbsI3
g0
(g81
g2
Ntp579
Rp580
(dp581
g85
g86
sg87
F4.924273
sg88
F0.0
sg89
g90
sg51
I3
sbsI4
g0
(g81
g2
Ntp582
Rp583
(dp584
g85
g86
sg87
F4.924273
sg88
F0.0
sg89
g90
sg51
I4
sbsI5
g0
(g81
g2
Ntp585
Rp586
(dp587
g85
g106
sg87
F4.4279524846109055
sg88
F-0.6324638731180485
sg89
g107
sg51
I5
sbsI6
g0
(g81
g2
Ntp588
Rp589
(dp590
g85
g106
sg87
F4.009836289367126
sg88
F0.34445324070642724
sg89
g107
sg51
I6
sbsI7
g0
(g81
g2
Ntp591
Rp592
(dp593
g85
g106
sg87
F5.598659813223621
sg88
F0.13364656013673598
sg89
g107
sg51
I7
sbsI8
g0
(g81
g2
Ntp594
Rp595
(dp596
g85
g106
sg87
F6.763353648502043
sg88
F-1.6820465065277812
sg89
g107
sg51
I8
sbssg117
(dp597
(I2
I5
tp598
g0
(g120
g2
Ntp599
Rp600
(dp601
g124
I01
sg125
F0.6375947353441693
sg126
I5
sg127
I2
sg128
I4
sbs(I2
I6
tp602
g0
(g120
g2
Ntp603
Rp604
(dp605
g124
I01
sg125
F1.1997292435658384
sg126
I6
sg127
I2
sg128
I5
sbs(I2
I7
tp606
g0
(g120
g2
Ntp607
Rp608
(dp609
g124
I00
sg125
F-0.16814645637919587
sg126
I7
sg127
I2
sg128
I6
sbs(I2
I8
tp610
g0
(g120
g2
Ntp611
Rp612
(dp613
g124
I01
sg125
F-0.9636529604507603
sg126
I8
sg127
I2
sg128
I7
sbssg141
I4
sg142
I5
sg143
g146
sg51
I546
sbag0
(g16
g2
Ntp614
Rp615
(dp616
g20
(lp617
g22
ag23
aS'a0'
p618
aS'h0'
p619
asg26
(lp620
g28
aS'a0t0'
p621
aS'a0t1'
p622
aS'a0t2'
p623
aS'a0t3'
p624
asg33
(dp625
sg35
(dp626
I0
g0
(g37
g2
Ntp627
Rp628
(dp629
g41
(dp630
g43
g0
(g44
g2
Ntp631
Rp632
(dp633
g48
F1.0
sg49
F0.0
sg50
F0.01
sg51
I1
sbsg52
g0
(g44
g2
Ntp634
Rp635
(dp636
g48
F1.0
sg49
F0.0
sg50
F0.02
sg51
I1
sbsg56
g0
(g44
g2
Ntp637
Rp638
(dp639
g48
F1.0
sg49
F0.0
sg50
F0.0
sg51
I1
sbsg60
g0
(g44
g2
Ntp640
Rp641
(dp642
g48
F1.0
sg49
F0.0
sg50
F0.2
sg51
I1
sbsg64
g0
(g44
g2
Ntp643
Rp644
(dp645
g48
F1.0
sg49
F0.0
sg50
F0.02
sg51
I1
sbsg68
g0
(g44
g2
Ntp646
Rp647
(dp648
g48
F1.0
sg49
F0.0
sg50
F0.0
sg51
I1
sbssg51
I0
sbssg72
I4
sg73
I1
sg74
I1
sg75
I531
sg76
I529
sg77
I1
sg78
Nsg79
(dp649
I0
g0
(g81
g2
Ntp650
Rp651
(dp652
g85
g86
sg87
F4.924273
sg88
F0.0
sg89
g90
sg51
I0
sbsI1
g0
(g81
g2
Ntp653
Rp654
(dp655
g85
g86
sg87
F4.924273
sg88
F0.0
sg89
g90
sg51
I1
sbsI2
g0
(g81
g2
Ntp656
Rp657
(dp658
g85
g86
sg87
F4.924273
sg88
F0.0
sg89
g90
sg51
I2
sbsI3
g0
(g81
g2
Ntp659
Rp660
(dp661
g85
g86
sg87
F4.924273
sg88
F0.0
sg89
g90
sg51
I3
sbsI4
g0
(g81
g2
Ntp662
Rp663
(dp664
g85
g86
sg87
F4.924273
sg88
F0.0
sg89
g90
sg51
I4
sbsI5
g0
(g81
g2
Ntp665
Rp666
(dp667
g85
g106
sg87
F4.130122428057486
sg88
F-1.22121254853083
sg89
g107
sg51
I5
sbsI6
g0
(g81
g2
Ntp668
Rp669
(dp670
g85
g106
sg87
F3.419143792158228
sg88
F0.3997874926658438
sg89
g107
sg51
I6
sbsI7
g0
(g81
g2
Ntp671
Rp672
(dp673
g85
g106
sg87
F6.522857157426416
sg88
F0.7630173089185501
sg89
g107
sg51
I7
sbsI8
g0
(g81
g2
Ntp674
Rp675
(dp676
g85
g106
sg87
F7.365436033502862
sg88
F-1.004355836930281
sg89
g107
sg51
I8
sbssg117
(dp677
(I2
I5
tp678
g0
(g120
g2
Ntp679
Rp680
(dp681
g124
I00
sg125
F0.2433629922474358
sg126
I5
sg127
I2
sg128
I4
sbs(I2
I6
tp682
g0
(g120
g2
Ntp683
Rp684
(dp685
g124
I01
sg125
F1.259486518573395
sg126
I6
sg127
I2
sg128
I5
sbs(I2
I7
tp686
g0
(g120
g2
Ntp687
Rp688
(dp689
g124
I00
sg125
F0.5342578814949817
sg126
I7
sg127
I2
sg128
I6
sbs(I2
I8
tp690
g0
(g120
g2
Ntp691
Rp692
(dp693
g124
I01
sg125
F-1.9748498707694107
sg126
I8
sg127
I2
sg128
I7
sbssg141
I4
sg142
I5
sg143
g146
sg51
I547
sbag0
(g16
g2
Ntp694
Rp695
(dp696
g20
(lp697
g22
ag23
aS'a0'
p698
aS'h0'
p699
asg26
(lp700
g28
aS'a0t0'
p701
aS'a0t1'
p702
aS'a0t2'
p703
aS'a0t3'
p704
asg33
(dp705
sg35
(dp706
I0
g0
(g37
g2
Ntp707
Rp708
(dp709
g41
(dp710
g43
g0
(g44
g2
Ntp711
Rp712
(dp713
g48
F1.0
sg49
F0.0
sg50
F0.01
sg51
I1
sbsg52
g0
(g44
g2
Ntp714
Rp715
(dp716
g48
F1.0
sg49
F0.0
sg50
F0.02
sg51
I1
sbsg56
g0
(g44
g2
Ntp717
Rp718
(dp719
g48
F1.0
sg49
F0.0
sg50
F0.0
sg51
I1
sbsg60
g0
(g44
g2
Ntp720
Rp721
(dp722
g48
F1.0
sg49
F0.0
sg50
F0.2
sg51
I1
sbsg64
g0
(g44
g2
Ntp723
Rp724
(dp725
g48
F1.0
sg49
F0.0
sg50
F0.02
sg51
I1
sbsg68
g0
(g44
g2
Ntp726
Rp727
(dp728
g48
F1.0
sg49
F0.0
sg50
F0.0
sg51
I1
sbssg51
I0
sbssg72
I4
sg73
I1
sg74
I1
sg75
I529
sg76
I531
sg77
I1
sg78
Nsg79
(dp729
I0
g0
(g81
g2
Ntp730
Rp731
(dp732
g85
g86
sg87
F4.924273
sg88
F0.0
sg89
g90
sg51
I0
sbsI1
g0
(g81
g2
Ntp733
Rp734
(dp735
g85
g86
sg87
F4.924273
sg88
F0.0
sg89
g90
sg51
I1
sbsI2
g0
(g81
g2
Ntp736
Rp737
(dp738
g85
g86
sg87
F4.924273
sg88
F0.0
sg89
g90
sg51
I2
sbsI3
g0
(g81
g2
Ntp739
Rp740
(dp741
g85
g86
sg87
F4.924273
sg88
F0.0
sg89
g90
sg51
I3
sbsI4
g0
(g81
g2
Ntp742
Rp743
(dp744
g85
g86
sg87
F4.924273
sg88
F0.0
sg89
g90
sg51
I4
sbsI5
g0
(g81
g2
Ntp745
Rp746
(dp747
g85
g106
sg87
F4.105675598958618
sg88
F-1.1921094925514053
sg89
g107
sg51
I5
sbsI6
g0
(g81
g2
Ntp748
Rp749
(dp750
g85
g106
sg87
F4.096144210434265
sg88
F0.6938259641815732
sg89
g107
sg51
I6
sbsI7
g0
(g81
g2
Ntp751
Rp752
(dp753
g85
g106
sg87
F6.333829567549988
sg88
F0.16333323798711136
sg89
g107
sg51
I7
sbsI8
g0
(g81
g2
Ntp754
Rp755
(dp756
g85
g106
sg87
F7.679531173220194
sg88
F-1.0042117538624322
sg89
g107
sg51
I8
sbssg117
(dp757
(I2
I5
tp758
g0
(g120
g2
Ntp759
Rp760
(dp761
g124
I01
sg125
F0.28772769799414355
sg126
I5
sg127
I2
sg128
I4
sbs(I2
I6
tp762
g0
(g120
g2
Ntp763
Rp764
(dp765
g124
I01
sg125
F1.6435103603151051
sg126
I6
sg127
I2
sg128
I5
sbs(I2
I7
tp766
g0
(g120
g2
Ntp767
Rp768
(dp769
g124
I00
sg125
F0.5624093190534402
sg126
I7
sg127
I2
sg128
I6
sbs(I2
I8
tp770
g0
(g120
g2
Ntp771
Rp772
(dp773
g124
I01
sg125
F-1.7700076412475503
sg126
I8
sg127
I2
sg128
I7
sbs(I3
I5
tp774
g0
(g120
g2
Ntp775
Rp776
(dp777
g124
I00
sg125
F-1.5814738717035328
sg126
I5
sg127
I3
sg128
I0
sbssg141
I4
sg142
I5
sg143
g146
sg51
I548
sbag0
(g16
g2
Ntp778
Rp779
(dp780
g20
(lp781
g22
ag23
aS'a0'
p782
aS'h0'
p783
asg26
(lp784
g28
aS'a0t0'
p785
aS'a0t1'
p786
aS'a0t2'
p787
aS'a0t3'
p788
asg33
(dp789
sg35
(dp790
I0
g0
(g37
g2
Ntp791
Rp792
(dp793
g41
(dp794
g43
g0
(g44
g2
Ntp795
Rp796
(dp797
g48
F1.0
sg49
F0.0
sg50
F0.01
sg51
I1
sbsg52
g0
(g44
g2
Ntp798
Rp799
(dp800
g48
F1.0
sg49
F0.0
sg50
F0.02
sg51
I1
sbsg56
g0
(g44
g2
Ntp801
Rp802
(dp803
g48
F1.0
sg49
F0.0
sg50
F0.0
sg51
I1
sbsg60
g0
(g44
g2
Ntp804
Rp805
(dp806
g48
F1.0
sg49
F0.0
sg50
F0.2
sg51
I1
sbsg64
g0
(g44
g2
Ntp807
Rp808
(dp809
g48
F1.0
sg49
F0.0
sg50
F0.02
sg51
I1
sbsg68
g0
(g44
g2
Ntp810
Rp811
(dp812
g48
F1.0
sg49
F0.0
sg50
F0.0
sg51
I1
sbssg51
I0
sbssg72
I4
sg73
I1
sg74
I1
sg75
I529
sg76
I531
sg77
I1
sg78
Nsg79
(dp813
I0
g0
(g81
g2
Ntp814
Rp815
(dp816
g85
g86
sg87
F4.924273
sg88
F0.0
sg89
g90
sg51
I0
sbsI1
g0
(g81
g2
Ntp817
Rp818
(dp819
g85
g86
sg87
F4.924273
sg88
F0.0
sg89
g90
sg51
I1
sbsI2
g0
(g81
g2
Ntp820
Rp821
(dp822
g85
g86
sg87
F4.924273
sg88
F0.0
sg89
g90
sg51
I2
sbsI3
g0
(g81
g2
Ntp823
Rp824
(dp825
g85
g86
sg87
F4.924273
sg88
F0.0
sg89
g90
sg51
I3
sbsI4
g0
(g81
g2
Ntp826
Rp827
(dp828
g85
g86
sg87
F4.924273
sg88
F0.0
sg89
g90
sg51
I4
sbsI5
g0
(g81
g2
Ntp829
Rp830
(dp831
g85
g106
sg87
F4.865228495491685
sg88
F-0.734389186032939
sg89
g107
sg51
I5
sbsI6
g0
(g81
g2
Ntp832
Rp833
(dp834
g85
g106
sg87
F2.965181325539799
sg88
F-0.6267971695434051
sg89
g107
sg51
I6
sbsI7
g0
(g81
g2
Ntp835
Rp836
(dp837
g85
g106
sg87
F6.461681848934394
sg88
F0.846015196173497
sg89
g107
sg51
I7
sbsI8
g0
(g81
g2
Ntp838
Rp839
(dp840
g85
g106
sg87
F7.5808363724041286
sg88
F-0.4588318434607114
sg89
g107
sg51
I8
sbssg117
(dp841
(I2
I5
tp842
g0
(g120
g2
Ntp843
Rp844
(dp845
g124
I01
sg125
F0.04025179498036713
sg126
I5
sg127
I2
sg128
I4
sbs(I2
I6
tp846
g0
(g120
g2
Ntp847
Rp848
(dp849
g124
I01
sg125
F1.6075075701761947
sg126
I6
sg127
I2
sg128
I5
sbs(I2
I7
tp850
g0
(g120
g2
Ntp851
Rp852
(dp853
g124
I00
sg125
F0.23846689325594647
sg126
I7
sg127
I2
sg128
I6
sbs(I2
I8
tp854
g0
(g120
g2
Ntp855
Rp856
(dp857
g124
I01
sg125
F-1.0805928555027944
sg126
I8
sg127
I2
sg128
I7
sbssg141
I4
sg142
I5
sg143
g146
sg51
I549
sbag0
(g16
g2
Ntp858
Rp859
(dp860
g20
(lp861
g22
ag23
aS'a0'
p862
aS'h0'
p863
asg26
(lp864
g28
aS'a0t0'
p865
aS'a0t1'
p866
aS'a0t2'
p867
aS'a0t3'
p868
asg33
(dp869
sg35
(dp870
I0
g0
(g37
g2
Ntp871
Rp872
(dp873
g41
(dp874
g43
g0
(g44
g2
Ntp875
Rp876
(dp877
g48
F1.0
sg49
F0.0
sg50
F0.01
sg51
I1
sbsg52
g0
(g44
g2
Ntp878
Rp879
(dp880
g48
F1.0
sg49
F0.0
sg50
F0.02
sg51
I1
sbsg56
g0
(g44
g2
Ntp881
Rp882
(dp883
g48
F1.0
sg49
F0.0
sg50
F0.0
sg51
I1
sbsg60
g0
(g44
g2
Ntp884
Rp885
(dp886
g48
F1.0
sg49
F0.0
sg50
F0.2
sg51
I1
sbsg64
g0
(g44
g2
Ntp887
Rp888
(dp889
g48
F1.0
sg49
F0.0
sg50
F0.02
sg51
I1
sbsg68
g0
(g44
g2
Ntp890
Rp891
(dp892
g48
F1.0
sg49
F0.0
sg50
F0.0
sg51
I1
sbssg51
I0
sbssg72
I4
sg73
I1
sg74
I1
sg75
I542
sg76
I475
sg77
I1
sg78
Nsg79
(dp893
I0
g0
(g81
g2
Ntp894
Rp895
(dp896
g85
g86
sg87
F4.924273
sg88
F0.0
sg89
g90
sg51
I0
sbsI1
g0
(g81
g2
Ntp897
Rp898
(dp899
g85
g86
sg87
F4.924273
sg88
F0.0
sg89
g90
sg51
I1
sbsI2
g0
(g81
g2
Ntp900
Rp901
(dp902
g85
g86
sg87
F4.924273
sg88
F0.0
sg89
g90
sg51
I2
sbsI3
g0
(g81
g2
Ntp903
Rp904
(dp905
g85
g86
sg87
F4.924273
sg88
F0.0
sg89
g90
sg51
I3
sbsI4
g0
(g81
g2
Ntp906
Rp907
(dp908
g85
g86
sg87
F4.924273
sg88
F0.0
sg89
g90
sg51
I4
sbsI5
g0
(g81
g2
Ntp909
Rp910
(dp911
g85
g106
sg87
F5.849798911174316
sg88
F-1.2463495481270654
sg89
g107
sg51
I5
sbsI6
g0
(g81
g2
Ntp912
Rp913
(dp914
g85
g106
sg87
F4.175619184806875
sg88
F-0.7052847635697117
sg89
g107
sg51
I6
sbsI7
g0
(g81
g2
Ntp915
Rp916
(dp917
g85
g106
sg87
F5.34972447456782
sg88
F-1.6287912110685558
sg89
g107
sg51
I7
sbsI8
g0
(g81
g2
Ntp918
Rp919
(dp920
g85
g106
sg87
F7.003978657565672
sg88
F-1.2210614931327495
sg89
g107
sg51
I8
sbssg117
(dp921
(I2
I5
tp922
g0
(g120
g2
Ntp923
Rp924
(dp925
g124
I01
sg125
F0.12270837569757626
sg126
I5
sg127
I2
sg128
I4
sbs(I2
I6
tp926
g0
(g120
g2
Ntp927
Rp928
(dp929
g124
I01
sg125
F0.27397559424008244
sg126
I6
sg127
I2
sg128
I5
sbs(I2
I7
tp930
g0
(g120
g2
Ntp931
Rp932
(dp933
g124
I00
sg125
F0.7369676366035343
sg126
I7
sg127
I2
sg128
I6
sbs(I2
I8
tp934
g0
(g120
g2
Ntp935
Rp936
(dp937
g124
I01
sg125
F-0.8945916351650467
sg126
I8
sg127
I2
sg128
I7
sbssg141
I4
sg142
I5
sg143
g146
sg51
I550
sbag0
(g16
g2
Ntp938
Rp939
(dp940
g20
(lp941
g22
ag23
aS'a0'
p942
aS'h0'
p943
asg26
(lp944
g28
aS'a0t0'
p945
aS'a0t1'
p946
aS'a0t2'
p947
aS'a0t3'
p948
asg33
(dp949
sg35
(dp950
I0
g0
(g37
g2
Ntp951
Rp952
(dp953
g41
(dp954
g43
g0
(g44
g2
Ntp955
Rp956
(dp957
g48
F1.0
sg49
F0.0
sg50
F0.01
sg51
I1
sbsg52
g0
(g44
g2
Ntp958
Rp959
(dp960
g48
F1.0
sg49
F0.0
sg50
F0.02
sg51
I1
sbsg56
g0
(g44
g2
Ntp961
Rp962
(dp963
g48
F1.0
sg49
F0.0
sg50
F0.0
sg51
I1
sbsg60
g0
(g44
g2
Ntp964
Rp965
(dp966
g48
F1.0
sg49
F0.0
sg50
F0.2
sg51
I1
sbsg64
g0
(g44
g2
Ntp967
Rp968
(dp969
g48
F1.0
sg49
F0.0
sg50
F0.02
sg51
I1
sbsg68
g0
(g44
g2
Ntp970
Rp971
(dp972
g48
F1.0
sg49
F0.0
sg50
F0.0
sg51
I1
sbssg51
I0
sbssg72
I4
sg73
I1
sg74
I1
sg75
I538
sg76
I465
sg77
I1
sg78
Nsg79
(dp973
I0
g0
(g81
g2
Ntp974
Rp975
(dp976
g85
g86
sg87
F4.924273
sg88
F0.0
sg89
g90
sg51
I0
sbsI1
g0
(g81
g2
Ntp977
Rp978
(dp979
g85
g86
sg87
F4.924273
sg88
F0.0
sg89
g90
sg51
I1
sbsI2
g0
(g81
g2
Ntp980
Rp981
(dp982
g85
g86
sg87
F4.924273
sg88
F0.0
sg89
g90
sg51
I2
sbsI3
g0
(g81
g2
Ntp983
Rp984
(dp985
g85
g86
sg87
F4.924273
sg88
F0.0
sg89
g90
sg51
I3
sbsI4
g0
(g81
g2
Ntp986
Rp987
(dp988
g85
g86
sg87
F4.924273
sg88
F0.0
sg89
g90
sg51
I4
sbsI5
g0
(g81
g2
Ntp989
Rp990
(dp991
g85
g106
sg87
F4.7496662132580525
sg88
F-0.44740343474578154
sg89
g107
sg51
I5
sbsI6
g0
(g81
g2
Ntp992
Rp993
(dp994
g85
g106
sg87
F4.756916172354959
sg88
F-0.0781476778281387
sg89
g107
sg51
I6
sbsI7
g0
(g81
g2
Ntp995
Rp996
(dp997
g85
g106
sg87
F4.917610406109682
sg88
F-1.7318005462111397
sg89
g107
sg51
I7
sbsI8
g0
(g81
g2
Ntp998
Rp999
(dp1000
g85
g106
sg87
F6.937965512773781
sg88
F-1.158788466025032
sg89
g107
sg51
I8
sbssg117
(dp1001
(I2
I5
tp1002
g0
(g120
g2
Ntp1003
Rp1004
(dp1005
g124
I00
sg125
F-0.13083573776634605
sg126
I5
sg127
I2
sg128
I4
sbs(I2
I6
tp1006
g0
(g120
g2
Ntp1007
Rp1008
(dp1009
g124
I01
sg125
F1.2664249620227213
sg126
I6
sg127
I2
sg128
I5
sbs(I2
I7
tp1010
g0
(g120
g2
Ntp1011
Rp1012
(dp1013
g124
I00
sg125
F0.031030577981866536
sg126
I7
sg127
I2
sg128
I6
sbs(I2
I8
tp1014
g0
(g120
g2
Ntp1015
Rp1016
(dp1017
g124
I01
sg125
F-2.0301111645233516
sg126
I8
sg127
I2
sg128
I7
sbssg141
I4
sg142
I5
sg143
g146
sg51
I551
sbag0
(g16
g2
Ntp1018
Rp1019
(dp1020
g20
(lp1021
g22
ag23
aS'a0'
p1022
aS'h0'
p1023
asg26
(lp1024
g28
aS'a0t0'
p1025
aS'a0t1'
p1026
aS'a0t2'
p1027
aS'a0t3'
p1028
asg33
(dp1029
sg35
(dp1030
I0
g0
(g37
g2
Ntp1031
Rp1032
(dp1033
g41
(dp1034
g43
g0
(g44
g2
Ntp1035
Rp1036
(dp1037
g48
F1.0
sg49
F0.0
sg50
F0.01
sg51
I1
sbsg52
g0
(g44
g2
Ntp1038
Rp1039
(dp1040
g48
F1.0
sg49
F0.0
sg50
F0.02
sg51
I1
sbsg56
g0
(g44
g2
Ntp1041
Rp1042
(dp1043
g48
F1.0
sg49
F0.0
sg50
F0.0
sg51
I1
sbsg60
g0
(g44
g2
Ntp1044
Rp1045
(dp1046
g48
F1.0
sg49
F0.0
sg50
F0.2
sg51
I1
sbsg64
g0
(g44
g2
Ntp1047
Rp1048
(dp1049
g48
F1.0
sg49
F0.0
sg50
F0.02
sg51
I1
sbsg68
g0
(g44
g2
Ntp1050
Rp1051
(dp1052
g48
F1.0
sg49
F0.0
sg50
F0.0
sg51
I1
sbssg51
I0
sbssg72
I4
sg73
I1
sg74
I1
sg75
I542
sg76
I465
sg77
I1
sg78
Nsg79
(dp1053
I0
g0
(g81
g2
Ntp1054
Rp1055
(dp1056
g85
g86
sg87
F4.924273
sg88
F0.0
sg89
g90
sg51
I0
sbsI1
g0
(g81
g2
Ntp1057
Rp1058
(dp1059
g85
g86
sg87
F4.924273
sg88
F0.0
sg89
g90
sg51
I1
sbsI2
g0
(g81
g2
Ntp1060
Rp1061
(dp1062
g85
g86
sg87
F4.924273
sg88
F0.0
sg89
g90
sg51
I2
sbsI3
g0
(g81
g2
Ntp1063
Rp1064
(dp1065
g85
g86
sg87
F4.924273
sg88
F0.0
sg89
g90
sg51
I3
sbsI4
g0
(g81
g2
Ntp1066
Rp1067
(dp1068
g85
g86
sg87
F4.924273
sg88
F0.0
sg89
g90
sg51
I4
sbsI5
g0
(g81
g2
Ntp1069
Rp1070
(dp1071
g85
g106
sg87
F5.288330363375302
sg88
F0.05120331611559026
sg89
g107
sg51
I5
sbsI6
g0
(g81
g2
Ntp1072
Rp1073
(dp1074
g85
g106
sg87
F2.9224549092331467
sg88
F0.24312861914983425
sg89
g107
sg51
I6
sbsI7
g0
(g81
g2
Ntp1075
Rp1076
(dp1077
g85
g106
sg87
F6.1070887613350715
sg88
F-0.16526982394142364
sg89
g107
sg51
I7
sbsI8
g0
(g81
g2
Ntp1078
Rp1079
(dp1080
g85
g106
sg87
F7.845045158184909
sg88
F-0.8835399435233093
sg89
g107
sg51
I8
sbssg117
(dp1081
(I2
I5
tp1082
g0
(g120
g2
Ntp1083
Rp1084
(dp1085
g124
I00
sg125
F0.6505932323291698
sg126
I5
sg127
I2
sg128
I4
sbs(I2
I6
tp1086
g0
(g120
g2
Ntp1087
Rp1088
(dp1089
g124
I01
sg125
F-0.09151137736550857
sg126
I6
sg127
I2
sg128
I5
sbs(I2
I7
tp1090
g0
(g120
g2
Ntp1091
Rp1092
(dp1093
g124
I00
sg125
F2.3486298621307293
sg126
I7
sg127
I2
sg128
I6
sbs(I2
I8
tp1094
g0
(g120
g2
Ntp1095
Rp1096
(dp1097
g124
I01
sg125
F-0.679160976414338
sg126
I8
sg127
I2
sg128
I7
sbssg141
I4
sg142
I5
sg143
g146
sg51
I552
sbag0
(g16
g2
Ntp1098
Rp1099
(dp1100
g20
(lp1101
g22
ag23
aS'a0'
p1102
aS'h0'
p1103
asg26
(lp1104
g28
aS'a0t0'
p1105
aS'a0t1'
p1106
aS'a0t2'
p1107
aS'a0t3'
p1108
asg33
(dp1109
sg35
(dp1110
I0
g0
(g37
g2
Ntp1111
Rp1112
(dp1113
g41
(dp1114
g43
g0
(g44
g2
Ntp1115
Rp1116
(dp1117
g48
F1.0
sg49
F0.0
sg50
F0.01
sg51
I1
sbsg52
g0
(g44
g2
Ntp1118
Rp1119
(dp1120
g48
F1.0
sg49
F0.0
sg50
F0.02
sg51
I1
sbsg56
g0
(g44
g2
Ntp1121
Rp1122
(dp1123
g48
F1.0
sg49
F0.0
sg50
F0.0
sg51
I1
sbsg60
g0
(g44
g2
Ntp1124
Rp1125
(dp1126
g48
F1.0
sg49
F0.0
sg50
F0.2
sg51
I1
sbsg64
g0
(g44
g2
Ntp1127
Rp1128
(dp1129
g48
F1.0
sg49
F0.0
sg50
F0.02
sg51
I1
sbsg68
g0
(g44
g2
Ntp1130
Rp1131
(dp1132
g48
F1.0
sg49
F0.0
sg50
F0.0
sg51
I1
sbssg51
I0
sbssg72
I4
sg73
I1
sg74
I1
sg75
I531
sg76
I529
sg77
I1
sg78
Nsg79
(dp1133
I0
g0
(g81
g2
Ntp1134
Rp1135
(dp1136
g85
g86
sg87
F4.924273
sg88
F0.0
sg89
g90
sg51
I0
sbsI1
g0
(g81
g2
Ntp1137
Rp1138
(dp1139
g85
g86
sg87
F4.924273
sg88
F0.0
sg89
g90
sg51
I1
sbsI2
g0
(g81
g2
Ntp1140
Rp1141
(dp1142
g85
g86
sg87
F4.924273
sg88
F0.0
sg89
g90
sg51
I2
sbsI3
g0
(g81
g2
Ntp1143
Rp1144
(dp1145
g85
g86
sg87
F4.924273
sg88
F0.0
sg89
g90
sg51
I3
sbsI4
g0
(g81
g2
Ntp1146
Rp1147
(dp1148
g85
g86
sg87
F4.924273
sg88
F0.0
sg89
g90
sg51
I4
sbsI5
g0
(g81
g2
Ntp1149
Rp1150
(dp1151
g85
g106
sg87
F5.376396516144697
sg88
F0.3174673593373285
sg89
g107
sg51
I5
sbsI6
g0
(g81
g2
Ntp1152
Rp1153
(dp1154
g85
g106
sg87
F2.7399932774287006
sg88
F-0.5115272453200042
sg89
g107
sg51
I6
sbsI7
g0
(g81
g2
Ntp1155
Rp1156
(dp1157
g85
g106
sg87
F6.461681848934394
sg88
F0.6144561403307593
sg89
g107
sg51
I7
sbsI8
g0
(g81
g2
Ntp1158
Rp1159
(dp1160
g85
g106
sg87
F7.543662402964158
sg88
F-0.40473674361357825
sg89
g107
sg51
I8
sbssg117
(dp1161
(I2
I5
tp1162
g0
(g120
g2
Ntp1163
Rp1164
(dp1165
g124
I00
sg125
F0.17272919335586212
sg126
I5
sg127
I2
sg128
I4
sbs(I2
I6
tp1166
g0
(g120
g2
Ntp1167
Rp1168
(dp1169
g124
I01
sg125
F1.291416267461806
sg126
I6
sg127
I2
sg128
I5
sbs(I2
I7
tp1170
g0
(g120
g2
Ntp1171
Rp1172
(dp1173
g124
I00
sg125
F-0.1244896575022755
sg126
I7
sg127
I2
sg128
I6
sbs(I2
I8
tp1174
g0
(g120
g2
Ntp1175
Rp1176
(dp1177
g124
I01
sg125
F-1.4220623773383585
sg126
I8
sg127
I2
sg128
I7
sbssg141
I4
sg142
I5
sg143
g146
sg51
I553
sbag0
(g16
g2
Ntp1178
Rp1179
(dp1180
g20
(lp1181
g22
ag23
aS'a0'
p1182
aS'h0'
p1183
asg26
(lp1184
g28
aS'a0t0'
p1185
aS'a0t1'
p1186
aS'a0t2'
p1187
aS'a0t3'
p1188
asg33
(dp1189
sg35
(dp1190
I0
g0
(g37
g2
Ntp1191
Rp1192
(dp1193
g41
(dp1194
g43
g0
(g44
g2
Ntp1195
Rp1196
(dp1197
g48
F1.0
sg49
F0.0
sg50
F0.01
sg51
I1
sbsg52
g0
(g44
g2
Ntp1198
Rp1199
(dp1200
g48
F1.0
sg49
F0.0
sg50
F0.02
sg51
I1
sbsg56
g0
(g44
g2
Ntp1201
Rp1202
(dp1203
g48
F1.0
sg49
F0.0
sg50
F0.0
sg51
I1
sbsg60
g0
(g44
g2
Ntp1204
Rp1205
(dp1206
g48
F1.0
sg49
F0.0
sg50
F0.2
sg51
I1
sbsg64
g0
(g44
g2
Ntp1207
Rp1208
(dp1209
g48
F1.0
sg49
F0.0
sg50
F0.02
sg51
I1
sbsg68
g0
(g44
g2
Ntp1210
Rp1211
(dp1212
g48
F1.0
sg49
F0.0
sg50
F0.0
sg51
I1
sbssg51
I0
sbssg72
I4
sg73
I1
sg74
I1
sg75
I542
sg76
I538
sg77
I1
sg78
Nsg79
(dp1213
I0
g0
(g81
g2
Ntp1214
Rp1215
(dp1216
g85
g86
sg87
F4.924273
sg88
F0.0
sg89
g90
sg51
I0
sbsI1
g0
(g81
g2
Ntp1217
Rp1218
(dp1219
g85
g86
sg87
F4.924273
sg88
F0.0
sg89
g90
sg51
I1
sbsI2
g0
(g81
g2
Ntp1220
Rp1221
(dp1222
g85
g86
sg87
F4.924273
sg88
F0.0
sg89
g90
sg51
I2
sbsI3
g0
(g81
g2
Ntp1223
Rp1224
(dp1225
g85
g86
sg87
F4.924273
sg88
F0.0
sg89
g90
sg51
I3
sbsI4
g0
(g81
g2
Ntp1226
Rp1227
(dp1228
g85
g86
sg87
F4.924273
sg88
F0.0
sg89
g90
sg51
I4
sbsI5
g0
(g81
g2
Ntp1229
Rp1230
(dp1231
g85
g106
sg87
F4.467336128134103
sg88
F-1.1502744611255389
sg89
g107
sg51
I5
sbsI6
g0
(g81
g2
Ntp1232
Rp1233
(dp1234
g85
g106
sg87
F3.4476895623085464
sg88
F0.11157284246140686
sg89
g107
sg51
I6
sbsI7
g0
(g81
g2
Ntp1235
Rp1236
(dp1237
g85
g106
sg87
F5.137894327944506
sg88
F-0.7188500764887573
sg89
g107
sg51
I7
sbsI8
g0
(g81
g2
Ntp1238
Rp1239
(dp1240
g85
g106
sg87
F7.472465130402717
sg88
F-0.5988542926471785
sg89
g107
sg51
I8
sbssg117
(dp1241
(I2
I5
tp1242
g0
(g120
g2
Ntp1243
Rp1244
(dp1245
g124
I01
sg125
F-0.13083573776634605
sg126
I5
sg127
I2
sg128
I4
sbs(I2
I6
tp1246
g0
(g120
g2
Ntp1247
Rp1248
(dp1249
g124
I01
sg125
F1.4083615469612507
sg126
I6
sg127
I2
sg128
I5
sbs(I2
I7
tp1250
g0
(g120
g2
Ntp1251
Rp1252
(dp1253
g124
I00
sg125
F0.4487300873384013
sg126
I7
sg127
I2
sg128
I6
sbs(I2
I8
tp1254
g0
(g120
g2
Ntp1255
Rp1256
(dp1257
g124
I01
sg125
F-1.945366545814027
sg126
I8
sg127
I2
sg128
I7
sbssg141
I4
sg142
I5
sg143
g146
sg51
I554
sbag0
(g16
g2
Ntp1258
Rp1259
(dp1260
g20
(lp1261
g22
ag23
aS'a0'
p1262
aS'h0'
p1263
asg26
(lp1264
g28
aS'a0t0'
p1265
aS'a0t1'
p1266
aS'a0t2'
p1267
aS'a0t3'
p1268
asg33
(dp1269
sg35
(dp1270
I0
g0
(g37
g2
Ntp1271
Rp1272
(dp1273
g41
(dp1274
g43
g0
(g44
g2
Ntp1275
Rp1276
(dp1277
g48
F1.0
sg49
F0.0
sg50
F0.01
sg51
I1
sbsg52
g0
(g44
g2
Ntp1278
Rp1279
(dp1280
g48
F1.0
sg49
F0.0
sg50
F0.02
sg51
I1
sbsg56
g0
(g44
g2
Ntp1281
Rp1282
(dp1283
g48
F1.0
sg49
F0.0
sg50
F0.0
sg51
I1
sbsg60
g0
(g44
g2
Ntp1284
Rp1285
(dp1286
g48
F1.0
sg49
F0.0
sg50
F0.2
sg51
I1
sbsg64
g0
(g44
g2
Ntp1287
Rp1288
(dp1289
g48
F1.0
sg49
F0.0
sg50
F0.02
sg51
I1
sbsg68
g0
(g44
g2
Ntp1290
Rp1291
(dp1292
g48
F1.0
sg49
F0.0
sg50
F0.0
sg51
I1
sbssg51
I0
sbssg72
I4
sg73
I1
sg74
I1
sg75
I475
sg76
I465
sg77
I1
sg78
Nsg79
(dp1293
I0
g0
(g81
g2
Ntp1294
Rp1295
(dp1296
g85
g86
sg87
F4.924273
sg88
F0.0
sg89
g90
sg51
I0
sbsI1
g0
(g81
g2
Ntp1297
Rp1298
(dp1299
g85
g86
sg87
F4.924273
sg88
F0.0
sg89
g90
sg51
I1
sbsI2
g0
(g81
g2
Ntp1300
Rp1301
(dp1302
g85
g86
sg87
F4.924273
sg88
F0.0
sg89
g90
sg51
I2
sbsI3
g0
(g81
g2
Ntp1303
Rp1304
(dp1305
g85
g86
sg87
F4.924273
sg88
F0.0
sg89
g90
sg51
I3
sbsI4
g0
(g81
g2
Ntp1306
Rp1307
(dp1308
g85
g86
sg87
F4.924273
sg88
F0.0
sg89
g90
sg51
I4
sbsI5
g0
(g81
g2
Ntp1309
Rp1310
(dp1311
g85
g106
sg87
F4.787616987974218
sg88
F-1.9368348737494068
sg89
g107
sg51
I5
sbsI6
g0
(g81
g2
Ntp1312
Rp1313
(dp1314
g85
g106
sg87
F3.7391481755060467
sg88
F-0.3931449449423223
sg89
g107
sg51
I6
sbsI7
g0
(g81
g2
Ntp1315
Rp1316
(dp1317
g85
g106
sg87
F6.074725588545667
sg88
F-1.8033603157770302
sg89
g107
sg51
I7
sbsI8
g0
(g81
g2
Ntp1318
Rp1319
(dp1320
g85
g106
sg87
F7.3508952361620485
sg88
F-0.8720963031916087
sg89
g107
sg51
I8
sbssg117
(dp1321
(I2
I5
tp1322
g0
(g120
g2
Ntp1323
Rp1324
(dp1325
g124
I01
sg125
F-0.13083573776634605
sg126
I5
sg127
I2
sg128
I4
sbs(I2
I6
tp1326
g0
(g120
g2
Ntp1327
Rp1328
(dp1329
g124
I01
sg125
F1.4310549203257483
sg126
I6
sg127
I2
sg128
I5
sbs(I2
I7
tp1330
g0
(g120
g2
Ntp1331
Rp1332
(dp1333
g124
I00
sg125
F-0.13474916982885032
sg126
I7
sg127
I2
sg128
I6
sbs(I2
I8
tp1334
g0
(g120
g2
Ntp1335
Rp1336
(dp1337
g124
I01
sg125
F-1.412517111083659
sg126
I8
sg127
I2
sg128
I7
sbssg141
I4
sg142
I5
sg143
g146
sg51
I555
sbag0
(g16
g2
Ntp1338
Rp1339
(dp1340
g20
(lp1341
g22
ag23
aS'a0'
p1342
aS'h0'
p1343
asg26
(lp1344
g28
aS'a0t0'
p1345
aS'a0t1'
p1346
aS'a0t2'
p1347
aS'a0t3'
p1348
asg33
(dp1349
sg35
(dp1350
I0
g0
(g37
g2
Ntp1351
Rp1352
(dp1353
g41
(dp1354
g43
g0
(g44
g2
Ntp1355
Rp1356
(dp1357
g48
F1.0
sg49
F0.0
sg50
F0.01
sg51
I1
sbsg52
g0
(g44
g2
Ntp1358
Rp1359
(dp1360
g48
F1.0
sg49
F0.0
sg50
F0.02
sg51
I1
sbsg56
g0
(g44
g2
Ntp1361
Rp1362
(dp1363
g48
F1.0
sg49
F0.0
sg50
F0.0
sg51
I1
sbsg60
g0
(g44
g2
Ntp1364
Rp1365
(dp1366
g48
F1.0
sg49
F0.0
sg50
F0.2
sg51
I1
sbsg64
g0
(g44
g2
Ntp1367
Rp1368
(dp1369
g48
F1.0
sg49
F0.0
sg50
F0.02
sg51
I1
sbsg68
g0
(g44
g2
Ntp1370
Rp1371
(dp1372
g48
F1.0
sg49
F0.0
sg50
F0.0
sg51
I1
sbssg51
I0
sbssg72
I4
sg73
I1
sg74
I1
sg75
I542
sg76
I475
sg77
I1
sg78
Nsg79
(dp1373
I0
g0
(g81
g2
Ntp1374
Rp1375
(dp1376
g85
g86
sg87
F4.924273
sg88
F0.0
sg89
g90
sg51
I0
sbsI1
g0
(g81
g2
Ntp1377
Rp1378
(dp1379
g85
g86
sg87
F4.924273
sg88
F0.0
sg89
g90
sg51
I1
sbsI2
g0
(g81
g2
Ntp1380
Rp1381
(dp1382
g85
g86
sg87
F4.924273
sg88
F0.0
sg89
g90
sg51
I2
sbsI3
g0
(g81
g2
Ntp1383
Rp1384
(dp1385
g85
g86
sg87
F4.924273
sg88
F0.0
sg89
g90
sg51
I3
sbsI4
g0
(g81
g2
Ntp1386
Rp1387
(dp1388
g85
g86
sg87
F4.924273
sg88
F0.0
sg89
g90
sg51
I4
sbsI5
g0
(g81
g2
Ntp1389
Rp1390
(dp1391
g85
g106
sg87
F4.600873952097216
sg88
F-0.7889087842763849
sg89
g107
sg51
I5
sbsI6
g0
(g81
g2
Ntp1392
Rp1393
(dp1394
g85
g106
sg87
F4.580661777325089
sg88
F-1.2089474945162904
sg89
g107
sg51
I6
sbsI7
g0
(g81
g2
Ntp1395
Rp1396
(dp1397
g85
g106
sg87
F5.789052478155125
sg88
F-1.7714013700861715
sg89
g107
sg51
I7
sbsI8
g0
(g81
g2
Ntp1398
Rp1399
(dp1400
g85
g106
sg87
F8.016902679753892
sg88
F-0.1995222784772907
sg89
g107
sg51
I8
sbssg117
(dp1401
(I2
I5
tp1402
g0
(g120
g2
Ntp1403
Rp1404
(dp1405
g124
I01
sg125
F-0.06125232102382765
sg126
I5
sg127
I2
sg128
I4
sbs(I2
I6
tp1406
g0
(g120
g2
Ntp1407
Rp1408
(dp1409
g124
I01
sg125
F-0.07686159663315412
sg126
I6
sg127
I2
sg128
I5
sbs(I2
I7
tp1410
g0
(g120
g2
Ntp1411
Rp1412
(dp1413
g124
I00
sg125
F1.2090826704129025
sg126
I7
sg127
I2
sg128
I6
sbs(I2
I8
tp1414
g0
(g120
g2
Ntp1415
Rp1416
(dp1417
g124
I01
sg125
F-2.498981207794345
sg126
I8
sg127
I2
sg128
I7
sbssg141
I4
sg142
I5
sg143
g146
sg51
I556
sbag0
(g16
g2
Ntp1418
Rp1419
(dp1420
g20
(lp1421
g22
ag23
aS'a0'
p1422
aS'h0'
p1423
asg26
(lp1424
g28
aS'a0t0'
p1425
aS'a0t1'
p1426
aS'a0t2'
p1427
aS'a0t3'
p1428
asg33
(dp1429
sg35
(dp1430
I0
g0
(g37
g2
Ntp1431
Rp1432
(dp1433
g41
(dp1434
g43
g0
(g44
g2
Ntp1435
Rp1436
(dp1437
g48
F1.0
sg49
F0.0
sg50
F0.01
sg51
I1
sbsg52
g0
(g44
g2
Ntp1438
Rp1439
(dp1440
g48
F1.0
sg49
F0.0
sg50
F0.02
sg51
I1
sbsg56
g0
(g44
g2
Ntp1441
Rp1442
(dp1443
g48
F1.0
sg49
F0.0
sg50
F0.0
sg51
I1
sbsg60
g0
(g44
g2
Ntp1444
Rp1445
(dp1446
g48
F1.0
sg49
F0.0
sg50
F0.2
sg51
I1
sbsg64
g0
(g44
g2
Ntp1447
Rp1448
(dp1449
g48
F1.0
sg49
F0.0
sg50
F0.02
sg51
I1
sbsg68
g0
(g44
g2
Ntp1450
Rp1451
(dp1452
g48
F1.0
sg49
F0.0
sg50
F0.0
sg51
I1
sbssg51
I0
sbssg72
I4
sg73
I1
sg74
I1
sg75
I529
sg76
I538
sg77
I1
sg78
Nsg79
(dp1453
I0
g0
(g81
g2
Ntp1454
Rp1455
(dp1456
g85
g86
sg87
F4.924273
sg88
F0.0
sg89
g90
sg51
I0
sbsI1
g0
(g81
g2
Ntp1457
Rp1458
(dp1459
g85
g86
sg87
F4.924273
sg88
F0.0
sg89
g90
sg51
I1
sbsI2
g0
(g81
g2
Ntp1460
Rp1461
(dp1462
g85
g86
sg87
F4.924273
sg88
F0.0
sg89
g90
sg51
I2
sbsI3
g0
(g81
g2
Ntp1463
Rp1464
(dp1465
g85
g86
sg87
F4.924273
sg88
F0.0
sg89
g90
sg51
I3
sbsI4
g0
(g81
g2
Ntp1466
Rp1467
(dp1468
g85
g86
sg87
F4.924273
sg88
F0.0
sg89
g90
sg51
I4
sbsI5
g0
(g81
g2
Ntp1469
Rp1470
(dp1471
g85
g106
sg87
F4.032271960675208
sg88
F-1.4002835770747413
sg89
g107
sg51
I5
sbsI6
g0
(g81
g2
Ntp1472
Rp1473
(dp1474
g85
g106
sg87
F4.88914169325258
sg88
F0.515667754614458
sg89
g107
sg51
I6
sbsI7
g0
(g81
g2
Ntp1475
Rp1476
(dp1477
g85
g106
sg87
F8.003785739745751
sg88
F0.12917414070871558
sg89
g107
sg51
I7
sbsI8
g0
(g81
g2
Ntp1478
Rp1479
(dp1480
g85
g106
sg87
F7.422911760945882
sg88
F-2.0033477375017292
sg89
g107
sg51
I8
sbssg117
(dp1481
(I2
I5
tp1482
g0
(g120
g2
Ntp1483
Rp1484
(dp1485
g124
I01
sg125
F-0.5381927598392973
sg126
I5
sg127
I2
sg128
I4
sbs(I2
I6
tp1486
g0
(g120
g2
Ntp1487
Rp1488
(dp1489
g124
I01
sg125
F1.0768837562573288
sg126
I6
sg127
I2
sg128
I5
sbs(I2
I7
tp1490
g0
(g120
g2
Ntp1491
Rp1492
(dp1493
g124
I00
sg125
F-0.47102067423304345
sg126
I7
sg127
I2
sg128
I6
sbs(I2
I8
tp1494
g0
(g120
g2
Ntp1495
Rp1496
(dp1497
g124
I01
sg125
F-1.942023199355565
sg126
I8
sg127
I2
sg128
I7
sbssg141
I4
sg142
I5
sg143
g146
sg51
I557
sbag0
(g16
g2
Ntp1498
Rp1499
(dp1500
g20
(lp1501
g22
ag23
aS'a0'
p1502
aS'h0'
p1503
asg26
(lp1504
g28
aS'a0t0'
p1505
aS'a0t1'
p1506
aS'a0t2'
p1507
aS'a0t3'
p1508
asg33
(dp1509
sg35
(dp1510
I0
g0
(g37
g2
Ntp1511
Rp1512
(dp1513
g41
(dp1514
g43
g0
(g44
g2
Ntp1515
Rp1516
(dp1517
g48
F1.0
sg49
F0.0
sg50
F0.01
sg51
I1
sbsg52
g0
(g44
g2
Ntp1518
Rp1519
(dp1520
g48
F1.0
sg49
F0.0
sg50
F0.02
sg51
I1
sbsg56
g0
(g44
g2
Ntp1521
Rp1522
(dp1523
g48
F1.0
sg49
F0.0
sg50
F0.0
sg51
I1
sbsg60
g0
(g44
g2
Ntp1524
Rp1525
(dp1526
g48
F1.0
sg49
F0.0
sg50
F0.2
sg51
I1
sbsg64
g0
(g44
g2
Ntp1527
Rp1528
(dp1529
g48
F1.0
sg49
F0.0
sg50
F0.02
sg51
I1
sbsg68
g0
(g44
g2
Ntp1530
Rp1531
(dp1532
g48
F1.0
sg49
F0.0
sg50
F0.0
sg51
I1
sbssg51
I0
sbssg72
I4
sg73
I1
sg74
I1
sg75
I529
sg76
I538
sg77
I1
sg78
Nsg79
(dp1533
I0
g0
(g81
g2
Ntp1534
Rp1535
(dp1536
g85
g86
sg87
F4.924273
sg88
F0.0
sg89
g90
sg51
I0
sbsI1
g0
(g81
g2
Ntp1537
Rp1538
(dp1539
g85
g86
sg87
F4.924273
sg88
F0.0
sg89
g90
sg51
I1
sbsI2
g0
(g81
g2
Ntp1540
Rp1541
(dp1542
g85
g86
sg87
F4.924273
sg88
F0.0
sg89
g90
sg51
I2
sbsI3
g0
(g81
g2
Ntp1543
Rp1544
(dp1545
g85
g86
sg87
F4.924273
sg88
F0.0
sg89
g90
sg51
I3
sbsI4
g0
(g81
g2
Ntp1546
Rp1547
(dp1548
g85
g86
sg87
F4.924273
sg88
F0.0
sg89
g90
sg51
I4
sbsI5
g0
(g81
g2
Ntp1549
Rp1550
(dp1551
g85
g106
sg87
F4.889764323673534
sg88
F-0.6146598325799509
sg89
g107
sg51
I5
sbsI6
g0
(g81
g2
Ntp1552
Rp1553
(dp1554
g85
g106
sg87
F3.275690529052886
sg88
F-0.00974583822766173
sg89
g107
sg51
I6
sbsI7
g0
(g81
g2
Ntp1555
Rp1556
(dp1557
g85
g106
sg87
F7.037265316698113
sg88
F0.8830325015194018
sg89
g107
sg51
I7
sbsI8
g0
(g81
g2
Ntp1558
Rp1559
(dp1560
g85
g106
sg87
F7.298927541277547
sg88
F-1.158788466025032
sg89
g107
sg51
I8
sbssg117
(dp1561
(I2
I5
tp1562
g0
(g120
g2
Ntp1563
Rp1564
(dp1565
g124
I01
sg125
F-0.13083573776634605
sg126
I5
sg127
I2
sg128
I4
sbs(I2
I6
tp1566
g0
(g120
g2
Ntp1567
Rp1568
(dp1569
g124
I01
sg125
F0.5416705713313317
sg126
I6
sg127
I2
sg128
I5
sbs(I2
I7
tp1570
g0
(g120
g2
Ntp1571
Rp1572
(dp1573
g124
I00
sg125
F0.556889780903692
sg126
I7
sg127
I2
sg128
I6
sbs(I2
I8
tp1574
g0
(g120
g2
Ntp1575
Rp1576
(dp1577
g124
I01
sg125
F-1.4049966197510606
sg126
I8
sg127
I2
sg128
I7
sbssg141
I4
sg142
I5
sg143
g146
sg51
I558
sbag0
(g16
g2
Ntp1578
Rp1579
(dp1580
g20
(lp1581
g22
ag23
aS'a0'
p1582
aS'h0'
p1583
asg26
(lp1584
g28
aS'a0t0'
p1585
aS'a0t1'
p1586
aS'a0t2'
p1587
aS'a0t3'
p1588
asg33
(dp1589
sg35
(dp1590
I0
g0
(g37
g2
Ntp1591
Rp1592
(dp1593
g41
(dp1594
g43
g0
(g44
g2
Ntp1595
Rp1596
(dp1597
g48
F1.0
sg49
F0.0
sg50
F0.01
sg51
I1
sbsg52
g0
(g44
g2
Ntp1598
Rp1599
(dp1600
g48
F1.0
sg49
F0.0
sg50
F0.02
sg51
I1
sbsg56
g0
(g44
g2
Ntp1601
Rp1602
(dp1603
g48
F1.0
sg49
F0.0
sg50
F0.0
sg51
I1
sbsg60
g0
(g44
g2
Ntp1604
Rp1605
(dp1606
g48
F1.0
sg49
F0.0
sg50
F0.2
sg51
I1
sbsg64
g0
(g44
g2
Ntp1607
Rp1608
(dp1609
g48
F1.0
sg49
F0.0
sg50
F0.02
sg51
I1
sbsg68
g0
(g44
g2
Ntp1610
Rp1611
(dp1612
g48
F1.0
sg49
F0.0
sg50
F0.0
sg51
I1
sbssg51
I0
sbssg72
I4
sg73
I1
sg74
I1
sg75
I542
sg76
I543
sg77
I1
sg78
Nsg79
(dp1613
I0
g0
(g81
g2
Ntp1614
Rp1615
(dp1616
g85
g86
sg87
F4.924273
sg88
F0.0
sg89
g90
sg51
I0
sbsI1
g0
(g81
g2
Ntp1617
Rp1618
(dp1619
g85
g86
sg87
F4.924273
sg88
F0.0
sg89
g90
sg51
I1
sbsI2
g0
(g81
g2
Ntp1620
Rp1621
(dp1622
g85
g86
sg87
F4.924273
sg88
F0.0
sg89
g90
sg51
I2
sbsI3
g0
(g81
g2
Ntp1623
Rp1624
(dp1625
g85
g86
sg87
F4.924273
sg88
F0.0
sg89
g90
sg51
I3
sbsI4
g0
(g81
g2
Ntp1626
Rp1627
(dp1628
g85
g86
sg87
F4.924273
sg88
F0.0
sg89
g90
sg51
I4
sbsI5
g0
(g81
g2
Ntp1629
Rp1630
(dp1631
g85
g106
sg87
F4.707270065911239
sg88
F-0.3012463200398042
sg89
g107
sg51
I5
sbsI6
g0
(g81
g2
Ntp1632
Rp1633
(dp1634
g85
g106
sg87
F4.1654758904147755
sg88
F-0.5914177474583587
sg89
g107
sg51
I6
sbsI7
g0
(g81
g2
Ntp1635
Rp1636
(dp1637
g85
g106
sg87
F6.746228538536176
sg88
F-2.085757137957431
sg89
g107
sg51
I7
sbsI8
g0
(g81
g2
Ntp1638
Rp1639
(dp1640
g85
g106
sg87
F6.9043304621776995
sg88
F-0.10468541045463906
sg89
g107
sg51
I8
sbsI9
g0
(g81
g2
Ntp1641
Rp1642
(dp1643
g85
g106
sg87
F4.664339571727093
sg88
F0.06552124890794325
sg89
S'HIDDEN'
p1644
sg51
I9
sbssg117
(dp1645
(I2
I5
tp1646
g0
(g120
g2
Ntp1647
Rp1648
(dp1649
g124
I01
sg125
F0.6389261360009566
sg126
I5
sg127
I2
sg128
I4
sbs(I2
I6
tp1650
g0
(g120
g2
Ntp1651
Rp1652
(dp1653
g124
I01
sg125
F1.1270101774755483
sg126
I6
sg127
I2
sg128
I5
sbs(I2
I7
tp1654
g0
(g120
g2
Ntp1655
Rp1656
(dp1657
g124
I00
sg125
F1.4104945094212948
sg126
I7
sg127
I2
sg128
I6
sbs(I2
I8
tp1658
g0
(g120
g2
Ntp1659
Rp1660
(dp1661
g124
I00
sg125
F-2.155427790574002
sg126
I8
sg127
I2
sg128
I7
sbs(I2
I9
tp1662
g0
(g120
g2
Ntp1663
Rp1664
(dp1665
g124
I01
sg125
F0.4316391466447881
sg126
I9
sg127
I2
sg128
I28
sbs(I9
I8
tp1666
g0
(g120
g2
Ntp1667
Rp1668
(dp1669
g124
I01
sg125
F-2.155427790574002
sg126
I8
sg127
I9
sg128
I21
sbssg141
I4
sg142
I5
sg143
g146
sg51
I559
sbag0
(g16
g2
Ntp1670
Rp1671
(dp1672
g20
(lp1673
g22
ag23
aS'a0'
p1674
aS'h0'
p1675
asg26
(lp1676
g28
aS'a0t0'
p1677
aS'a0t1'
p1678
aS'a0t2'
p1679
aS'a0t3'
p1680
asg33
(dp1681
sg35
(dp1682
I0
g0
(g37
g2
Ntp1683
Rp1684
(dp1685
g41
(dp1686
g43
g0
(g44
g2
Ntp1687
Rp1688
(dp1689
g48
F1.0
sg49
F0.0
sg50
F0.01
sg51
I1
sbsg52
g0
(g44
g2
Ntp1690
Rp1691
(dp1692
g48
F1.0
sg49
F0.0
sg50
F0.02
sg51
I1
sbsg56
g0
(g44
g2
Ntp1693
Rp1694
(dp1695
g48
F1.0
sg49
F0.0
sg50
F0.0
sg51
I1
sbsg60
g0
(g44
g2
Ntp1696
Rp1697
(dp1698
g48
F1.0
sg49
F0.0
sg50
F0.2
sg51
I1
sbsg64
g0
(g44
g2
Ntp1699
Rp1700
(dp1701
g48
F1.0
sg49
F0.0
sg50
F0.02
sg51
I1
sbsg68
g0
(g44
g2
Ntp1702
Rp1703
(dp1704
g48
F1.0
sg49
F0.0
sg50
F0.0
sg51
I1
sbssg51
I0
sbssg72
I4
sg73
I1
sg74
I1
sg75
I543
sg76
I543
sg77
I1
sg78
Nsg79
(dp1705
I0
g0
(g81
g2
Ntp1706
Rp1707
(dp1708
g85
g86
sg87
F4.924273
sg88
F0.0
sg89
g90
sg51
I0
sbsI1
g0
(g81
g2
Ntp1709
Rp1710
(dp1711
g85
g86
sg87
F4.924273
sg88
F0.0
sg89
g90
sg51
I1
sbsI2
g0
(g81
g2
Ntp1712
Rp1713
(dp1714
g85
g86
sg87
F4.924273
sg88
F0.0
sg89
g90
sg51
I2
sbsI3
g0
(g81
g2
Ntp1715
Rp1716
(dp1717
g85
g86
sg87
F4.924273
sg88
F0.0
sg89
g90
sg51
I3
sbsI4
g0
(g81
g2
Ntp1718
Rp1719
(dp1720
g85
g86
sg87
F4.924273
sg88
F0.0
sg89
g90
sg51
I4
sbsI5
g0
(g81
g2
Ntp1721
Rp1722
(dp1723
g85
g106
sg87
F4.876750564014669
sg88
F-0.4070571284328151
sg89
g107
sg51
I5
sbsI6
g0
(g81
g2
Ntp1724
Rp1725
(dp1726
g85
g106
sg87
F1.872013432545005
sg88
F0.07917671792024741
sg89
g107
sg51
I6
sbsI7
g0
(g81
g2
Ntp1727
Rp1728
(dp1729
g85
g106
sg87
F6.700002334628725
sg88
F-0.3424125706044056
sg89
g107
sg51
I7
sbsI8
g0
(g81
g2
Ntp1730
Rp1731
(dp1732
g85
g106
sg87
F9.041747075272724
sg88
F-1.0482928432103629
sg89
g107
sg51
I8
sbsI9
g0
(g81
g2
Ntp1733
Rp1734
(dp1735
g85
g106
sg87
F5.111980828989625
sg88
F0.422307163947881
sg89
g1644
sg51
I9
sbssg117
(dp1736
(I2
I5
tp1737
g0
(g120
g2
Ntp1738
Rp1739
(dp1740
g124
I00
sg125
F-0.034265764094723705
sg126
I5
sg127
I2
sg128
I4
sbs(I2
I6
tp1741
g0
(g120
g2
Ntp1742
Rp1743
(dp1744
g124
I01
sg125
F1.1864872161469906
sg126
I6
sg127
I2
sg128
I5
sbs(I2
I7
tp1745
g0
(g120
g2
Ntp1746
Rp1747
(dp1748
g124
I00
sg125
F2.3380222481385453
sg126
I7
sg127
I2
sg128
I6
sbs(I2
I8
tp1749
g0
(g120
g2
Ntp1750
Rp1751
(dp1752
g124
I01
sg125
F0.06307126346614306
sg126
I8
sg127
I2
sg128
I7
sbs(I2
I9
tp1753
g0
(g120
g2
Ntp1754
Rp1755
(dp1756
g124
I01
sg125
F1.1648821790539352
sg126
I9
sg127
I2
sg128
I28
sbs(I9
I5
tp1757
g0
(g120
g2
Ntp1758
Rp1759
(dp1760
g124
I01
sg125
F-0.7340912051336941
sg126
I5
sg127
I9
sg128
I26
sbssg141
I4
sg142
I5
sg143
g146
sg51
I560
sbag0
(g16
g2
Ntp1761
Rp1762
(dp1763
g20
(lp1764
g22
ag23
aS'a0'
p1765
aS'h0'
p1766
asg26
(lp1767
g28
aS'a0t0'
p1768
aS'a0t1'
p1769
aS'a0t2'
p1770
aS'a0t3'
p1771
asg33
(dp1772
sg35
(dp1773
I0
g0
(g37
g2
Ntp1774
Rp1775
(dp1776
g41
(dp1777
g43
g0
(g44
g2
Ntp1778
Rp1779
(dp1780
g48
F1.0
sg49
F0.0
sg50
F0.01
sg51
I1
sbsg52
g0
(g44
g2
Ntp1781
Rp1782
(dp1783
g48
F1.0
sg49
F0.0
sg50
F0.02
sg51
I1
sbsg56
g0
(g44
g2
Ntp1784
Rp1785
(dp1786
g48
F1.0
sg49
F0.0
sg50
F0.0
sg51
I1
sbsg60
g0
(g44
g2
Ntp1787
Rp1788
(dp1789
g48
F1.0
sg49
F0.0
sg50
F0.2
sg51
I1
sbsg64
g0
(g44
g2
Ntp1790
Rp1791
(dp1792
g48
F1.0
sg49
F0.0
sg50
F0.02
sg51
I1
sbsg68
g0
(g44
g2
Ntp1793
Rp1794
(dp1795
g48
F1.0
sg49
F0.0
sg50
F0.0
sg51
I1
sbssg51
I0
sbssg72
I4
sg73
I1
sg74
I1
sg75
I465
sg76
I475
sg77
I1
sg78
Nsg79
(dp1796
I0
g0
(g81
g2
Ntp1797
Rp1798
(dp1799
g85
g86
sg87
F4.924273
sg88
F0.0
sg89
g90
sg51
I0
sbsI1
g0
(g81
g2
Ntp1800
Rp1801
(dp1802
g85
g86
sg87
F4.924273
sg88
F0.0
sg89
g90
sg51
I1
sbsI2
g0
(g81
g2
Ntp1803
Rp1804
(dp1805
g85
g86
sg87
F4.924273
sg88
F0.0
sg89
g90
sg51
I2
sbsI3
g0
(g81
g2
Ntp1806
Rp1807
(dp1808
g85
g86
sg87
F4.924273
sg88
F0.0
sg89
g90
sg51
I3
sbsI4
g0
(g81
g2
Ntp1809
Rp1810
(dp1811
g85
g86
sg87
F4.924273
sg88
F0.0
sg89
g90
sg51
I4
sbsI5
g0
(g81
g2
Ntp1812
Rp1813
(dp1814
g85
g106
sg87
F5.006741140213529
sg88
F-0.48824054889975066
sg89
g107
sg51
I5
sbsI6
g0
(g81
g2
Ntp1815
Rp1816
(dp1817
g85
g106
sg87
F3.7391481755060467
sg88
F0.18227046264697036
sg89
g107
sg51
I6
sbsI7
g0
(g81
g2
Ntp1818
Rp1819
(dp1820
g85
g106
sg87
F4.872529510886882
sg88
F-0.16526982394142364
sg89
g107
sg51
I7
sbsI8
g0
(g81
g2
Ntp1821
Rp1822
(dp1823
g85
g106
sg87
F6.880374328660167
sg88
F-1.7226424962617277
sg89
g107
sg51
I8
sbssg117
(dp1824
(I2
I5
tp1825
g0
(g120
g2
Ntp1826
Rp1827
(dp1828
g124
I01
sg125
F-0.3458684132993878
sg126
I5
sg127
I2
sg128
I4
sbs(I2
I6
tp1829
g0
(g120
g2
Ntp1830
Rp1831
(dp1832
g124
I01
sg125
F0.8242420034883969
sg126
I6
sg127
I2
sg128
I5
sbs(I2
I7
tp1833
g0
(g120
g2
Ntp1834
Rp1835
(dp1836
g124
I00
sg125
F0.5821446327792673
sg126
I7
sg127
I2
sg128
I6
sbs(I2
I8
tp1837
g0
(g120
g2
Ntp1838
Rp1839
(dp1840
g124
I01
sg125
F-1.0083972823834544
sg126
I8
sg127
I2
sg128
I7
sbs(I6
I8
tp1841
g0
(g120
g2
Ntp1842
Rp1843
(dp1844
g124
I00
sg125
F0.1253698934649729
sg126
I8
sg127
I6
sg128
I42
sbssg141
I4
sg142
I5
sg143
g146
sg51
I561
sbag0
(g16
g2
Ntp1845
Rp1846
(dp1847
g20
(lp1848
g22
ag23
aS'a0'
p1849
aS'h0'
p1850
asg26
(lp1851
g28
aS'a0t0'
p1852
aS'a0t1'
p1853
aS'a0t2'
p1854
aS'a0t3'
p1855
asg33
(dp1856
sg35
(dp1857
I0
g0
(g37
g2
Ntp1858
Rp1859
(dp1860
g41
(dp1861
g43
g0
(g44
g2
Ntp1862
Rp1863
(dp1864
g48
F1.0
sg49
F0.0
sg50
F0.01
sg51
I1
sbsg52
g0
(g44
g2
Ntp1865
Rp1866
(dp1867
g48
F1.0
sg49
F0.0
sg50
F0.02
sg51
I1
sbsg56
g0
(g44
g2
Ntp1868
Rp1869
(dp1870
g48
F1.0
sg49
F0.0
sg50
F0.0
sg51
I1
sbsg60
g0
(g44
g2
Ntp1871
Rp1872
(dp1873
g48
F1.0
sg49
F0.0
sg50
F0.2
sg51
I1
sbsg64
g0
(g44
g2
Ntp1874
Rp1875
(dp1876
g48
F1.0
sg49
F0.0
sg50
F0.02
sg51
I1
sbsg68
g0
(g44
g2
Ntp1877
Rp1878
(dp1879
g48
F1.0
sg49
F0.0
sg50
F0.0
sg51
I1
sbssg51
I0
sbssg72
I4
sg73
I1
sg74
I1
sg75
I475
sg76
I529
sg77
I1
sg78
Nsg79
(dp1880
I0
g0
(g81
g2
Ntp1881
Rp1882
(dp1883
g85
g86
sg87
F4.924273
sg88
F0.0
sg89
g90
sg51
I0
sbsI1
g0
(g81
g2
Ntp1884
Rp1885
(dp1886
g85
g86
sg87
F4.924273
sg88
F0.0
sg89
g90
sg51
I1
sbsI2
g0
(g81
g2
Ntp1887
Rp1888
(dp1889
g85
g86
sg87
F4.924273
sg88
F0.0
sg89
g90
sg51
I2
sbsI3
g0
(g81
g2
Ntp1890
Rp1891
(dp1892
g85
g86
sg87
F4.924273
sg88
F0.0
sg89
g90
sg51
I3
sbsI4
g0
(g81
g2
Ntp1893
Rp1894
(dp1895
g85
g86
sg87
F4.924273
sg88
F0.0
sg89
g90
sg51
I4
sbsI5
g0
(g81
g2
Ntp1896
Rp1897
(dp1898
g85
g106
sg87
F4.693392267290517
sg88
F-1.6154927151853147
sg89
g107
sg51
I5
sbsI6
g0
(g81
g2
Ntp1899
Rp1900
(dp1901
g85
g106
sg87
F3.7426151075754612
sg88
F0.54069275536369
sg89
g107
sg51
I6
sbsI7
g0
(g81
g2
Ntp1902
Rp1903
(dp1904
g85
g106
sg87
F6.001756336231136
sg88
F-1.727330470742877
sg89
g107
sg51
I7
sbsI8
g0
(g81
g2
Ntp1905
Rp1906
(dp1907
g85
g106
sg87
F6.473776329600216
sg88
F-0.6530380078482829
sg89
g107
sg51
I8
sbssg117
(dp1908
(I2
I5
tp1909
g0
(g120
g2
Ntp1910
Rp1911
(dp1912
g124
I01
sg125
F-0.05395302115375484
sg126
I5
sg127
I2
sg128
I4
sbs(I2
I6
tp1913
g0
(g120
g2
Ntp1914
Rp1915
(dp1916
g124
I01
sg125
F0.9511214560457255
sg126
I6
sg127
I2
sg128
I5
sbs(I2
I7
tp1917
g0
(g120
g2
Ntp1918
Rp1919
(dp1920
g124
I00
sg125
F0.08470460956008768
sg126
I7
sg127
I2
sg128
I6
sbs(I2
I8
tp1921
g0
(g120
g2
Ntp1922
Rp1923
(dp1924
g124
I01
sg125
F-1.0581983343558872
sg126
I8
sg127
I2
sg128
I7
sbs(I4
I6
tp1925
g0
(g120
g2
Ntp1926
Rp1927
(dp1928
g124
I00
sg125
F-1.3079171875107005
sg126
I6
sg127
I4
sg128
I13
sbssg141
I4
sg142
I5
sg143
g146
sg51
I562
sbag0
(g16
g2
Ntp1929
Rp1930
(dp1931
g20
(lp1932
g22
ag23
aS'a0'
p1933
aS'h0'
p1934
asg26
(lp1935
g28
aS'a0t0'
p1936
aS'a0t1'
p1937
aS'a0t2'
p1938
aS'a0t3'
p1939
asg33
(dp1940
sg35
(dp1941
I0
g0
(g37
g2
Ntp1942
Rp1943
(dp1944
g41
(dp1945
g43
g0
(g44
g2
Ntp1946
Rp1947
(dp1948
g48
F1.0
sg49
F0.0
sg50
F0.01
sg51
I1
sbsg52
g0
(g44
g2
Ntp1949
Rp1950
(dp1951
g48
F1.0
sg49
F0.0
sg50
F0.02
sg51
I1
sbsg56
g0
(g44
g2
Ntp1952
Rp1953
(dp1954
g48
F1.0
sg49
F0.0
sg50
F0.0
sg51
I1
sbsg60
g0
(g44
g2
Ntp1955
Rp1956
(dp1957
g48
F1.0
sg49
F0.0
sg50
F0.2
sg51
I1
sbsg64
g0
(g44
g2
Ntp1958
Rp1959
(dp1960
g48
F1.0
sg49
F0.0
sg50
F0.02
sg51
I1
sbsg68
g0
(g44
g2
Ntp1961
Rp1962
(dp1963
g48
F1.0
sg49
F0.0
sg50
F0.0
sg51
I1
sbssg51
I0
sbssg72
I4
sg73
I1
sg74
I1
sg75
I475
sg76
I543
sg77
I1
sg78
Nsg79
(dp1964
I0
g0
(g81
g2
Ntp1965
Rp1966
(dp1967
g85
g86
sg87
F4.924273
sg88
F0.0
sg89
g90
sg51
I0
sbsI1
g0
(g81
g2
Ntp1968
Rp1969
(dp1970
g85
g86
sg87
F4.924273
sg88
F0.0
sg89
g90
sg51
I1
sbsI2
g0
(g81
g2
Ntp1971
Rp1972
(dp1973
g85
g86
sg87
F4.924273
sg88
F0.0
sg89
g90
sg51
I2
sbsI3
g0
(g81
g2
Ntp1974
Rp1975
(dp1976
g85
g86
sg87
F4.924273
sg88
F0.0
sg89
g90
sg51
I3
sbsI4
g0
(g81
g2
Ntp1977
Rp1978
(dp1979
g85
g86
sg87
F4.924273
sg88
F0.0
sg89
g90
sg51
I4
sbsI5
g0
(g81
g2
Ntp1980
Rp1981
(dp1982
g85
g106
sg87
F4.522333951260454
sg88
F-1.7323111830593618
sg89
g107
sg51
I5
sbsI6
g0
(g81
g2
Ntp1983
Rp1984
(dp1985
g85
g106
sg87
F5.125872964569278
sg88
F0.09171611877417996
sg89
g107
sg51
I6
sbsI7
g0
(g81
g2
Ntp1986
Rp1987
(dp1988
g85
g106
sg87
F8.035892647272155
sg88
F-1.500687215543886
sg89
g107
sg51
I7
sbsI8
g0
(g81
g2
Ntp1989
Rp1990
(dp1991
g85
g106
sg87
F8.067385885388251
sg88
F-1.3587969088476715
sg89
g107
sg51
I8
sbssg117
(dp1992
(I2
I5
tp1993
g0
(g120
g2
Ntp1994
Rp1995
(dp1996
g124
I01
sg125
F-0.034265764094723705
sg126
I5
sg127
I2
sg128
I4
sbs(I2
I6
tp1997
g0
(g120
g2
Ntp1998
Rp1999
(dp2000
g124
I01
sg125
F0.4553823330971979
sg126
I6
sg127
I2
sg128
I5
sbs(I2
I7
tp2001
g0
(g120
g2
Ntp2002
Rp2003
(dp2004
g124
I00
sg125
F2.950529524222146
sg126
I7
sg127
I2
sg128
I6
sbs(I2
I8
tp2005
g0
(g120
g2
Ntp2006
Rp2007
(dp2008
g124
I01
sg125
F-1.7490403795947151
sg126
I8
sg127
I2
sg128
I7
sbssg141
I4
sg142
I5
sg143
g146
sg51
I563
sbag0
(g16
g2
Ntp2009
Rp2010
(dp2011
g20
(lp2012
g22
ag23
aS'a0'
p2013
aS'h0'
p2014
asg26
(lp2015
g28
aS'a0t0'
p2016
aS'a0t1'
p2017
aS'a0t2'
p2018
aS'a0t3'
p2019
asg33
(dp2020
sg35
(dp2021
I0
g0
(g37
g2
Ntp2022
Rp2023
(dp2024
g41
(dp2025
g43
g0
(g44
g2
Ntp2026
Rp2027
(dp2028
g48
F1.0
sg49
F0.0
sg50
F0.01
sg51
I1
sbsg52
g0
(g44
g2
Ntp2029
Rp2030
(dp2031
g48
F1.0
sg49
F0.0
sg50
F0.02
sg51
I1
sbsg56
g0
(g44
g2
Ntp2032
Rp2033
(dp2034
g48
F1.0
sg49
F0.0
sg50
F0.0
sg51
I1
sbsg60
g0
(g44
g2
Ntp2035
Rp2036
(dp2037
g48
F1.0
sg49
F0.0
sg50
F0.2
sg51
I1
sbsg64
g0
(g44
g2
Ntp2038
Rp2039
(dp2040
g48
F1.0
sg49
F0.0
sg50
F0.02
sg51
I1
sbsg68
g0
(g44
g2
Ntp2041
Rp2042
(dp2043
g48
F1.0
sg49
F0.0
sg50
F0.0
sg51
I1
sbssg51
I0
sbssg72
I4
sg73
I1
sg74
I1
sg75
I543
sg76
I465
sg77
I1
sg78
Nsg79
(dp2044
I0
g0
(g81
g2
Ntp2045
Rp2046
(dp2047
g85
g86
sg87
F4.924273
sg88
F0.0
sg89
g90
sg51
I0
sbsI1
g0
(g81
g2
Ntp2048
Rp2049
(dp2050
g85
g86
sg87
F4.924273
sg88
F0.0
sg89
g90
sg51
I1
sbsI2
g0
(g81
g2
Ntp2051
Rp2052
(dp2053
g85
g86
sg87
F4.924273
sg88
F0.0
sg89
g90
sg51
I2
sbsI3
g0
(g81
g2
Ntp2054
Rp2055
(dp2056
g85
g86
sg87
F4.924273
sg88
F0.0
sg89
g90
sg51
I3
sbsI4
g0
(g81
g2
Ntp2057
Rp2058
(dp2059
g85
g86
sg87
F4.924273
sg88
F0.0
sg89
g90
sg51
I4
sbsI5
g0
(g81
g2
Ntp2060
Rp2061
(dp2062
g85
g106
sg87
F5.102663222345078
sg88
F0.2347535749072141
sg89
g107
sg51
I5
sbsI6
g0
(g81
g2
Ntp2063
Rp2064
(dp2065
g85
g106
sg87
F4.152165600932201
sg88
F0.1468688307372314
sg89
g107
sg51
I6
sbsI7
g0
(g81
g2
Ntp2066
Rp2067
(dp2068
g85
g106
sg87
F7.529465556328056
sg88
F-0.16526982394142364
sg89
g107
sg51
I7
sbsI8
g0
(g81
g2
Ntp2069
Rp2070
(dp2071
g85
g106
sg87
F7.491208202474936
sg88
F-0.6048881307681293
sg89
g107
sg51
I8
sbssg117
(dp2072
(I2
I5
tp2073
g0
(g120
g2
Ntp2074
Rp2075
(dp2076
g124
I00
sg125
F-1.7568667836056473
sg126
I5
sg127
I2
sg128
I4
sbs(I2
I6
tp2077
g0
(g120
g2
Ntp2078
Rp2079
(dp2080
g124
I01
sg125
F0.21940984688271414
sg126
I6
sg127
I2
sg128
I5
sbs(I2
I7
tp2081
g0
(g120
g2
Ntp2082
Rp2083
(dp2084
g124
I00
sg125
F-0.29581321632671076
sg126
I7
sg127
I2
sg128
I6
sbs(I2
I8
tp2085
g0
(g120
g2
Ntp2086
Rp2087
(dp2088
g124
I01
sg125
F-0.7678512804331392
sg126
I8
sg127
I2
sg128
I7
sbs(I5
I7
tp2089
g0
(g120
g2
Ntp2090
Rp2091
(dp2092
g124
I01
sg125
F-0.4379878403595243
sg126
I7
sg127
I5
sg128
I34
sbssg141
I4
sg142
I5
sg143
g146
sg51
I564
sbag0
(g16
g2
Ntp2093
Rp2094
(dp2095
g20
(lp2096
g22
ag23
aS'a0'
p2097
aS'h0'
p2098
asg26
(lp2099
g28
aS'a0t0'
p2100
aS'a0t1'
p2101
aS'a0t2'
p2102
aS'a0t3'
p2103
asg33
(dp2104
sg35
(dp2105
I0
g0
(g37
g2
Ntp2106
Rp2107
(dp2108
g41
(dp2109
g43
g0
(g44
g2
Ntp2110
Rp2111
(dp2112
g48
F1.0
sg49
F0.0
sg50
F0.01
sg51
I1
sbsg52
g0
(g44
g2
Ntp2113
Rp2114
(dp2115
g48
F1.0
sg49
F0.0
sg50
F0.02
sg51
I1
sbsg56
g0
(g44
g2
Ntp2116
Rp2117
(dp2118
g48
F1.0
sg49
F0.0
sg50
F0.0
sg51
I1
sbsg60
g0
(g44
g2
Ntp2119
Rp2120
(dp2121
g48
F1.0
sg49
F0.0
sg50
F0.2
sg51
I1
sbsg64
g0
(g44
g2
Ntp2122
Rp2123
(dp2124
g48
F1.0
sg49
F0.0
sg50
F0.02
sg51
I1
sbsg68
g0
(g44
g2
Ntp2125
Rp2126
(dp2127
g48
F1.0
sg49
F0.0
sg50
F0.0
sg51
I1
sbssg51
I0
sbssg72
I4
sg73
I1
sg74
I1
sg75
I465
sg76
I542
sg77
I1
sg78
Nsg79
(dp2128
I0
g0
(g81
g2
Ntp2129
Rp2130
(dp2131
g85
g86
sg87
F4.924273
sg88
F0.0
sg89
g90
sg51
I0
sbsI1
g0
(g81
g2
Ntp2132
Rp2133
(dp2134
g85
g86
sg87
F4.924273
sg88
F0.0
sg89
g90
sg51
I1
sbsI2
g0
(g81
g2
Ntp2135
Rp2136
(dp2137
g85
g86
sg87
F4.924273
sg88
F0.0
sg89
g90
sg51
I2
sbsI3
g0
(g81
g2
Ntp2138
Rp2139
(dp2140
g85
g86
sg87
F4.924273
sg88
F0.0
sg89
g90
sg51
I3
sbsI4
g0
(g81
g2
Ntp2141
Rp2142
(dp2143
g85
g86
sg87
F4.924273
sg88
F0.0
sg89
g90
sg51
I4
sbsI5
g0
(g81
g2
Ntp2144
Rp2145
(dp2146
g85
g106
sg87
F4.899482773277015
sg88
F-0.9174028844457625
sg89
g107
sg51
I5
sbsI6
g0
(g81
g2
Ntp2147
Rp2148
(dp2149
g85
g106
sg87
F3.7391481755060467
sg88
F0.4444826624609021
sg89
g107
sg51
I6
sbsI7
g0
(g81
g2
Ntp2150
Rp2151
(dp2152
g85
g106
sg87
F4.926451779758912
sg88
F1.0167055115477217
sg89
g107
sg51
I7
sbsI8
g0
(g81
g2
Ntp2153
Rp2154
(dp2155
g85
g106
sg87
F7.172344903375713
sg88
F0.21784566544382633
sg89
g107
sg51
I8
sbssg117
(dp2156
(I2
I5
tp2157
g0
(g120
g2
Ntp2158
Rp2159
(dp2160
g124
I01
sg125
F0.8171669193476452
sg126
I5
sg127
I2
sg128
I4
sbs(I2
I6
tp2161
g0
(g120
g2
Ntp2162
Rp2163
(dp2164
g124
I01
sg125
F1.7524700612108748
sg126
I6
sg127
I2
sg128
I5
sbs(I2
I7
tp2165
g0
(g120
g2
Ntp2166
Rp2167
(dp2168
g124
I00
sg125
F-0.29903192719283556
sg126
I7
sg127
I2
sg128
I6
sbs(I2
I8
tp2169
g0
(g120
g2
Ntp2170
Rp2171
(dp2172
g124
I01
sg125
F-2.155427790574002
sg126
I8
sg127
I2
sg128
I7
sbs(I6
I5
tp2173
g0
(g120
g2
Ntp2174
Rp2175
(dp2176
g124
I00
sg125
F0.21680373131871358
sg126
I5
sg127
I6
sg128
I24
sbssg141
I4
sg142
I5
sg143
g146
sg51
I565
sbag0
(g16
g2
Ntp2177
Rp2178
(dp2179
g20
(lp2180
g22
ag23
aS'a0'
p2181
aS'h0'
p2182
asg26
(lp2183
g28
aS'a0t0'
p2184
aS'a0t1'
p2185
aS'a0t2'
p2186
aS'a0t3'
p2187
asg33
(dp2188
sg35
(dp2189
I0
g0
(g37
g2
Ntp2190
Rp2191
(dp2192
g41
(dp2193
g43
g0
(g44
g2
Ntp2194
Rp2195
(dp2196
g48
F1.0
sg49
F0.0
sg50
F0.01
sg51
I1
sbsg52
g0
(g44
g2
Ntp2197
Rp2198
(dp2199
g48
F1.0
sg49
F0.0
sg50
F0.02
sg51
I1
sbsg56
g0
(g44
g2
Ntp2200
Rp2201
(dp2202
g48
F1.0
sg49
F0.0
sg50
F0.0
sg51
I1
sbsg60
g0
(g44
g2
Ntp2203
Rp2204
(dp2205
g48
F1.0
sg49
F0.0
sg50
F0.2
sg51
I1
sbsg64
g0
(g44
g2
Ntp2206
Rp2207
(dp2208
g48
F1.0
sg49
F0.0
sg50
F0.02
sg51
I1
sbsg68
g0
(g44
g2
Ntp2209
Rp2210
(dp2211
g48
F1.0
sg49
F0.0
sg50
F0.0
sg51
I1
sbssg51
I0
sbssg72
I4
sg73
I1
sg74
I1
sg75
I465
sg76
I543
sg77
I1
sg78
Nsg79
(dp2212
I0
g0
(g81
g2
Ntp2213
Rp2214
(dp2215
g85
g86
sg87
F4.924273
sg88
F0.0
sg89
g90
sg51
I0
sbsI1
g0
(g81
g2
Ntp2216
Rp2217
(dp2218
g85
g86
sg87
F4.924273
sg88
F0.0
sg89
g90
sg51
I1
sbsI2
g0
(g81
g2
Ntp2219
Rp2220
(dp2221
g85
g86
sg87
F4.924273
sg88
F0.0
sg89
g90
sg51
I2
sbsI3
g0
(g81
g2
Ntp2222
Rp2223
(dp2224
g85
g86
sg87
F4.924273
sg88
F0.0
sg89
g90
sg51
I3
sbsI4
g0
(g81
g2
Ntp2225
Rp2226
(dp2227
g85
g86
sg87
F4.924273
sg88
F0.0
sg89
g90
sg51
I4
sbsI5
g0
(g81
g2
Ntp2228
Rp2229
(dp2230
g85
g106
sg87
F4.639614698919183
sg88
F-0.026989546366814055
sg89
g107
sg51
I5
sbsI6
g0
(g81
g2
Ntp2231
Rp2232
(dp2233
g85
g106
sg87
F3.9646676754886596
sg88
F0.6596190807451634
sg89
g107
sg51
I6
sbsI7
g0
(g81
g2
Ntp2234
Rp2235
(dp2236
g85
g106
sg87
F7.372940999578361
sg88
F-0.3047955158944825
sg89
g107
sg51
I7
sbsI8
g0
(g81
g2
Ntp2237
Rp2238
(dp2239
g85
g106
sg87
F8.414725243355162
sg88
F-0.5053402699307881
sg89
g107
sg51
I8
sbssg117
(dp2240
(I2
I5
tp2241
g0
(g120
g2
Ntp2242
Rp2243
(dp2244
g124
I00
sg125
F0.908477721967469
sg126
I5
sg127
I2
sg128
I4
sbs(I2
I6
tp2245
g0
(g120
g2
Ntp2246
Rp2247
(dp2248
g124
I01
sg125
F1.3250435430808571
sg126
I6
sg127
I2
sg128
I5
sbs(I2
I7
tp2249
g0
(g120
g2
Ntp2250
Rp2251
(dp2252
g124
I00
sg125
F-0.6740837792153752
sg126
I7
sg127
I2
sg128
I6
sbs(I2
I8
tp2253
g0
(g120
g2
Ntp2254
Rp2255
(dp2256
g124
I01
sg125
F-1.412517111083659
sg126
I8
sg127
I2
sg128
I7
sbssg141
I4
sg142
I5
sg143
g146
sg51
I566
sbag0
(g16
g2
Ntp2257
Rp2258
(dp2259
g20
(lp2260
g22
ag23
aS'a0'
p2261
aS'h0'
p2262
asg26
(lp2263
g28
aS'a0t0'
p2264
aS'a0t1'
p2265
aS'a0t2'
p2266
aS'a0t3'
p2267
asg33
(dp2268
sg35
(dp2269
I0
g0
(g37
g2
Ntp2270
Rp2271
(dp2272
g41
(dp2273
g43
g0
(g44
g2
Ntp2274
Rp2275
(dp2276
g48
F1.0
sg49
F0.0
sg50
F0.01
sg51
I1
sbsg52
g0
(g44
g2
Ntp2277
Rp2278
(dp2279
g48
F1.0
sg49
F0.0
sg50
F0.02
sg51
I1
sbsg56
g0
(g44
g2
Ntp2280
Rp2281
(dp2282
g48
F1.0
sg49
F0.0
sg50
F0.0
sg51
I1
sbsg60
g0
(g44
g2
Ntp2283
Rp2284
(dp2285
g48
F1.0
sg49
F0.0
sg50
F0.2
sg51
I1
sbsg64
g0
(g44
g2
Ntp2286
Rp2287
(dp2288
g48
F1.0
sg49
F0.0
sg50
F0.02
sg51
I1
sbsg68
g0
(g44
g2
Ntp2289
Rp2290
(dp2291
g48
F1.0
sg49
F0.0
sg50
F0.0
sg51
I1
sbssg51
I0
sbssg72
I4
sg73
I1
sg74
I1
sg75
I529
sg76
I531
sg77
I1
sg78
Nsg79
(dp2292
I0
g0
(g81
g2
Ntp2293
Rp2294
(dp2295
g85
g86
sg87
F4.924273
sg88
F0.0
sg89
g90
sg51
I0
sbsI1
g0
(g81
g2
Ntp2296
Rp2297
(dp2298
g85
g86
sg87
F4.924273
sg88
F0.0
sg89
g90
sg51
I1
sbsI2
g0
(g81
g2
Ntp2299
Rp2300
(dp2301
g85
g86
sg87
F4.924273
sg88
F0.0
sg89
g90
sg51
I2
sbsI3
g0
(g81
g2
Ntp2302
Rp2303
(dp2304
g85
g86
sg87
F4.924273
sg88
F0.0
sg89
g90
sg51
I3
sbsI4
g0
(g81
g2
Ntp2305
Rp2306
(dp2307
g85
g86
sg87
F4.924273
sg88
F0.0
sg89
g90
sg51
I4
sbsI5
g0
(g81
g2
Ntp2308
Rp2309
(dp2310
g85
g106
sg87
F4.73419859090618
sg88
F-0.7268073604934817
sg89
g107
sg51
I5
sbsI6
g0
(g81
g2
Ntp2311
Rp2312
(dp2313
g85
g106
sg87
F4.096144210434265
sg88
F-0.13049042584298615
sg89
g107
sg51
I6
sbsI7
g0
(g81
g2
Ntp2314
Rp2315
(dp2316
g85
g106
sg87
F7.0125285414176854
sg88
F0.7177111450626545
sg89
g107
sg51
I7
sbsI8
g0
(g81
g2
Ntp2317
Rp2318
(dp2319
g85
g106
sg87
F7.120428645461035
sg88
F-0.6568418894713555
sg89
g107
sg51
I8
sbssg117
(dp2320
(I2
I5
tp2321
g0
(g120
g2
Ntp2322
Rp2323
(dp2324
g124
I00
sg125
F0.03786765053550373
sg126
I5
sg127
I2
sg128
I4
sbs(I2
I6
tp2325
g0
(g120
g2
Ntp2326
Rp2327
(dp2328
g124
I01
sg125
F1.6143808327244427
sg126
I6
sg127
I2
sg128
I5
sbs(I2
I7
tp2329
g0
(g120
g2
Ntp2330
Rp2331
(dp2332
g124
I00
sg125
F-0.003713960324325121
sg126
I7
sg127
I2
sg128
I6
sbs(I2
I8
tp2333
g0
(g120
g2
Ntp2334
Rp2335
(dp2336
g124
I01
sg125
F-1.447119335146959
sg126
I8
sg127
I2
sg128
I7
sbssg141
I4
sg142
I5
sg143
g146
sg51
I567
sbag0
(g16
g2
Ntp2337
Rp2338
(dp2339
g20
(lp2340
g22
ag23
aS'a0'
p2341
aS'h0'
p2342
asg26
(lp2343
g28
aS'a0t0'
p2344
aS'a0t1'
p2345
aS'a0t2'
p2346
aS'a0t3'
p2347
asg33
(dp2348
sg35
(dp2349
I0
g0
(g37
g2
Ntp2350
Rp2351
(dp2352
g41
(dp2353
g43
g0
(g44
g2
Ntp2354
Rp2355
(dp2356
g48
F1.0
sg49
F0.0
sg50
F0.01
sg51
I1
sbsg52
g0
(g44
g2
Ntp2357
Rp2358
(dp2359
g48
F1.0
sg49
F0.0
sg50
F0.02
sg51
I1
sbsg56
g0
(g44
g2
Ntp2360
Rp2361
(dp2362
g48
F1.0
sg49
F0.0
sg50
F0.0
sg51
I1
sbsg60
g0
(g44
g2
Ntp2363
Rp2364
(dp2365
g48
F1.0
sg49
F0.0
sg50
F0.2
sg51
I1
sbsg64
g0
(g44
g2
Ntp2366
Rp2367
(dp2368
g48
F1.0
sg49
F0.0
sg50
F0.02
sg51
I1
sbsg68
g0
(g44
g2
Ntp2369
Rp2370
(dp2371
g48
F1.0
sg49
F0.0
sg50
F0.0
sg51
I1
sbssg51
I0
sbssg72
I4
sg73
I1
sg74
I1
sg75
I531
sg76
I538
sg77
I1
sg78
Nsg79
(dp2372
I0
g0
(g81
g2
Ntp2373
Rp2374
(dp2375
g85
g86
sg87
F4.924273
sg88
F0.0
sg89
g90
sg51
I0
sbsI1
g0
(g81
g2
Ntp2376
Rp2377
(dp2378
g85
g86
sg87
F4.924273
sg88
F0.0
sg89
g90
sg51
I1
sbsI2
g0
(g81
g2
Ntp2379
Rp2380
(dp2381
g85
g86
sg87
F4.924273
sg88
F0.0
sg89
g90
sg51
I2
sbsI3
g0
(g81
g2
Ntp2382
Rp2383
(dp2384
g85
g86
sg87
F4.924273
sg88
F0.0
sg89
g90
sg51
I3
sbsI4
g0
(g81
g2
Ntp2385
Rp2386
(dp2387
g85
g86
sg87
F4.924273
sg88
F0.0
sg89
g90
sg51
I4
sbsI5
g0
(g81
g2
Ntp2388
Rp2389
(dp2390
g85
g106
sg87
F4.4279524846109055
sg88
F-0.5790189368185895
sg89
g107
sg51
I5
sbsI6
g0
(g81
g2
Ntp2391
Rp2392
(dp2393
g85
g106
sg87
F3.423299555243406
sg88
F-0.5115272453200042
sg89
g107
sg51
I6
sbsI7
g0
(g81
g2
Ntp2394
Rp2395
(dp2396
g85
g106
sg87
F6.317457729849867
sg88
F-0.30340593536968874
sg89
g107
sg51
I7
sbsI8
g0
(g81
g2
Ntp2397
Rp2398
(dp2399
g85
g106
sg87
F6.800804633072153
sg88
F-1.4791512106329001
sg89
g107
sg51
I8
sbssg117
(dp2400
(I2
I5
tp2401
g0
(g120
g2
Ntp2402
Rp2403
(dp2404
g124
I01
sg125
F-0.21135748858637943
sg126
I5
sg127
I2
sg128
I4
sbs(I2
I6
tp2405
g0
(g120
g2
Ntp2406
Rp2407
(dp2408
g124
I01
sg125
F1.2783447209770185
sg126
I6
sg127
I2
sg128
I5
sbs(I2
I7
tp2409
g0
(g120
g2
Ntp2410
Rp2411
(dp2412
g124
I00
sg125
F0.7424818642546418
sg126
I7
sg127
I2
sg128
I6
sbs(I2
I8
tp2413
g0
(g120
g2
Ntp2414
Rp2415
(dp2416
g124
I01
sg125
F-1.4220623773383585
sg126
I8
sg127
I2
sg128
I7
sbssg141
I4
sg142
I5
sg143
g146
sg51
I568
sbag0
(g16
g2
Ntp2417
Rp2418
(dp2419
g20
(lp2420
g22
ag23
aS'a0'
p2421
aS'h0'
p2422
asg26
(lp2423
g28
aS'a0t0'
p2424
aS'a0t1'
p2425
aS'a0t2'
p2426
aS'a0t3'
p2427
asg33
(dp2428
sg35
(dp2429
I0
g0
(g37
g2
Ntp2430
Rp2431
(dp2432
g41
(dp2433
g43
g0
(g44
g2
Ntp2434
Rp2435
(dp2436
g48
F1.0
sg49
F0.0
sg50
F0.01
sg51
I1
sbsg52
g0
(g44
g2
Ntp2437
Rp2438
(dp2439
g48
F1.0
sg49
F0.0
sg50
F0.02
sg51
I1
sbsg56
g0
(g44
g2
Ntp2440
Rp2441
(dp2442
g48
F1.0
sg49
F0.0
sg50
F0.0
sg51
I1
sbsg60
g0
(g44
g2
Ntp2443
Rp2444
(dp2445
g48
F1.0
sg49
F0.0
sg50
F0.2
sg51
I1
sbsg64
g0
(g44
g2
Ntp2446
Rp2447
(dp2448
g48
F1.0
sg49
F0.0
sg50
F0.02
sg51
I1
sbsg68
g0
(g44
g2
Ntp2449
Rp2450
(dp2451
g48
F1.0
sg49
F0.0
sg50
F0.0
sg51
I1
sbssg51
I0
sbssg72
I4
sg73
I1
sg74
I1
sg75
I475
sg76
I538
sg77
I1
sg78
Nsg79
(dp2452
I0
g0
(g81
g2
Ntp2453
Rp2454
(dp2455
g85
g86
sg87
F4.924273
sg88
F0.0
sg89
g90
sg51
I0
sbsI1
g0
(g81
g2
Ntp2456
Rp2457
(dp2458
g85
g86
sg87
F4.924273
sg88
F0.0
sg89
g90
sg51
I1
sbsI2
g0
(g81
g2
Ntp2459
Rp2460
(dp2461
g85
g86
sg87
F4.924273
sg88
F0.0
sg89
g90
sg51
I2
sbsI3
g0
(g81
g2
Ntp2462
Rp2463
(dp2464
g85
g86
sg87
F4.924273
sg88
F0.0
sg89
g90
sg51
I3
sbsI4
g0
(g81
g2
Ntp2465
Rp2466
(dp2467
g85
g86
sg87
F4.924273
sg88
F0.0
sg89
g90
sg51
I4
sbsI5
g0
(g81
g2
Ntp2468
Rp2469
(dp2470
g85
g106
sg87
F4.5125100172269805
sg88
F-1.1816213111655045
sg89
g107
sg51
I5
sbsI6
g0
(g81
g2
Ntp2471
Rp2472
(dp2473
g85
g106
sg87
F4.820859020607312
sg88
F-0.2929055980128125
sg89
g107
sg51
I6
sbsI7
g0
(g81
g2
Ntp2474
Rp2475
(dp2476
g85
g106
sg87
F6.676172475569144
sg88
F0.03219403403946697
sg89
g107
sg51
I7
sbsI8
g0
(g81
g2
Ntp2477
Rp2478
(dp2479
g85
g106
sg87
F6.928784909405852
sg88
F-1.1659232630923668
sg89
g107
sg51
I8
sbssg117
(dp2480
(I2
I5
tp2481
g0
(g120
g2
Ntp2482
Rp2483
(dp2484
g124
I01
sg125
F-0.7218071666822865
sg126
I5
sg127
I2
sg128
I4
sbs(I2
I6
tp2485
g0
(g120
g2
Ntp2486
Rp2487
(dp2488
g124
I01
sg125
F1.3320009366416383
sg126
I6
sg127
I2
sg128
I5
sbs(I2
I7
tp2489
g0
(g120
g2
Ntp2490
Rp2491
(dp2492
g124
I00
sg125
F-0.20397515402038935
sg126
I7
sg127
I2
sg128
I6
sbs(I2
I8
tp2493
g0
(g120
g2
Ntp2494
Rp2495
(dp2496
g124
I01
sg125
F-2.045801106088514
sg126
I8
sg127
I2
sg128
I7
sbssg141
I4
sg142
I5
sg143
g146
sg51
I569
sbag0
(g16
g2
Ntp2497
Rp2498
(dp2499
g20
(lp2500
g22
ag23
aS'a0'
p2501
aS'h0'
p2502
asg26
(lp2503
g28
aS'a0t0'
p2504
aS'a0t1'
p2505
aS'a0t2'
p2506
aS'a0t3'
p2507
asg33
(dp2508
sg35
(dp2509
I0
g0
(g37
g2
Ntp2510
Rp2511
(dp2512
g41
(dp2513
g43
g0
(g44
g2
Ntp2514
Rp2515
(dp2516
g48
F1.0
sg49
F0.0
sg50
F0.01
sg51
I1
sbsg52
g0
(g44
g2
Ntp2517
Rp2518
(dp2519
g48
F1.0
sg49
F0.0
sg50
F0.02
sg51
I1
sbsg56
g0
(g44
g2
Ntp2520
Rp2521
(dp2522
g48
F1.0
sg49
F0.0
sg50
F0.0
sg51
I1
sbsg60
g0
(g44
g2
Ntp2523
Rp2524
(dp2525
g48
F1.0
sg49
F0.0
sg50
F0.2
sg51
I1
sbsg64
g0
(g44
g2
Ntp2526
Rp2527
(dp2528
g48
F1.0
sg49
F0.0
sg50
F0.02
sg51
I1
sbsg68
g0
(g44
g2
Ntp2529
Rp2530
(dp2531
g48
F1.0
sg49
F0.0
sg50
F0.0
sg51
I1
sbssg51
I0
sbssg72
I4
sg73
I1
sg74
I1
sg75
I475
sg76
I542
sg77
I1
sg78
Nsg79
(dp2532
I0
g0
(g81
g2
Ntp2533
Rp2534
(dp2535
g85
g86
sg87
F4.924273
sg88
F0.0
sg89
g90
sg51
I0
sbsI1
g0
(g81
g2
Ntp2536
Rp2537
(dp2538
g85
g86
sg87
F4.924273
sg88
F0.0
sg89
g90
sg51
I1
sbsI2
g0
(g81
g2
Ntp2539
Rp2540
(dp2541
g85
g86
sg87
F4.924273
sg88
F0.0
sg89
g90
sg51
I2
sbsI3
g0
(g81
g2
Ntp2542
Rp2543
(dp2544
g85
g86
sg87
F4.924273
sg88
F0.0
sg89
g90
sg51
I3
sbsI4
g0
(g81
g2
Ntp2545
Rp2546
(dp2547
g85
g86
sg87
F4.924273
sg88
F0.0
sg89
g90
sg51
I4
sbsI5
g0
(g81
g2
Ntp2548
Rp2549
(dp2550
g85
g106
sg87
F4.373100989075685
sg88
F-1.240270568072278
sg89
g107
sg51
I5
sbsI6
g0
(g81
g2
Ntp2551
Rp2552
(dp2553
g85
g106
sg87
F3.8213277174196048
sg88
F0.07654923062304397
sg89
g107
sg51
I6
sbsI7
g0
(g81
g2
Ntp2554
Rp2555
(dp2556
g85
g106
sg87
F6.021254360568334
sg88
F-2.049419304052134
sg89
g107
sg51
I7
sbsI8
g0
(g81
g2
Ntp2557
Rp2558
(dp2559
g85
g106
sg87
F7.482269698277152
sg88
F-1.195561980361472
sg89
g107
sg51
I8
sbssg117
(dp2560
(I2
I5
tp2561
g0
(g120
g2
Ntp2562
Rp2563
(dp2564
g124
I01
sg125
F0.058372371838325915
sg126
I5
sg127
I2
sg128
I4
sbs(I2
I6
tp2565
g0
(g120
g2
Ntp2566
Rp2567
(dp2568
g124
I01
sg125
F1.830350801509789
sg126
I6
sg127
I2
sg128
I5
sbs(I2
I7
tp2569
g0
(g120
g2
Ntp2570
Rp2571
(dp2572
g124
I00
sg125
F0.9790155581742606
sg126
I7
sg127
I2
sg128
I6
sbs(I2
I8
tp2573
g0
(g120
g2
Ntp2574
Rp2575
(dp2576
g124
I01
sg125
F-1.1973360998689857
sg126
I8
sg127
I2
sg128
I7
sbssg141
I4
sg142
I5
sg143
g146
sg51
I570
sbag0
(g16
g2
Ntp2577
Rp2578
(dp2579
g20
(lp2580
g22
ag23
aS'a0'
p2581
aS'h0'
p2582
asg26
(lp2583
g28
aS'a0t0'
p2584
aS'a0t1'
p2585
aS'a0t2'
p2586
aS'a0t3'
p2587
asg33
(dp2588
sg35
(dp2589
I0
g0
(g37
g2
Ntp2590
Rp2591
(dp2592
g41
(dp2593
g43
g0
(g44
g2
Ntp2594
Rp2595
(dp2596
g48
F1.0
sg49
F0.0
sg50
F0.01
sg51
I1
sbsg52
g0
(g44
g2
Ntp2597
Rp2598
(dp2599
g48
F1.0
sg49
F0.0
sg50
F0.02
sg51
I1
sbsg56
g0
(g44
g2
Ntp2600
Rp2601
(dp2602
g48
F1.0
sg49
F0.0
sg50
F0.0
sg51
I1
sbsg60
g0
(g44
g2
Ntp2603
Rp2604
(dp2605
g48
F1.0
sg49
F0.0
sg50
F0.2
sg51
I1
sbsg64
g0
(g44
g2
Ntp2606
Rp2607
(dp2608
g48
F1.0
sg49
F0.0
sg50
F0.02
sg51
I1
sbsg68
g0
(g44
g2
Ntp2609
Rp2610
(dp2611
g48
F1.0
sg49
F0.0
sg50
F0.0
sg51
I1
sbssg51
I0
sbssg72
I4
sg73
I1
sg74
I1
sg75
I465
sg76
I465
sg77
I1
sg78
Nsg79
(dp2612
I0
g0
(g81
g2
Ntp2613
Rp2614
(dp2615
g85
g86
sg87
F4.924273
sg88
F0.0
sg89
g90
sg51
I0
sbsI1
g0
(g81
g2
Ntp2616
Rp2617
(dp2618
g85
g86
sg87
F4.924273
sg88
F0.0
sg89
g90
sg51
I1
sbsI2
g0
(g81
g2
Ntp2619
Rp2620
(dp2621
g85
g86
sg87
F4.924273
sg88
F0.0
sg89
g90
sg51
I2
sbsI3
g0
(g81
g2
Ntp2622
Rp2623
(dp2624
g85
g86
sg87
F4.924273
sg88
F0.0
sg89
g90
sg51
I3
sbsI4
g0
(g81
g2
Ntp2625
Rp2626
(dp2627
g85
g86
sg87
F4.924273
sg88
F0.0
sg89
g90
sg51
I4
sbsI5
g0
(g81
g2
Ntp2628
Rp2629
(dp2630
g85
g106
sg87
F4.64457682768262
sg88
F-0.5159441269818582
sg89
g107
sg51
I5
sbsI6
g0
(g81
g2
Ntp2631
Rp2632
(dp2633
g85
g106
sg87
F3.2258006284686314
sg88
F0.18227046264697036
sg89
g107
sg51
I6
sbsI7
g0
(g81
g2
Ntp2634
Rp2635
(dp2636
g85
g106
sg87
F4.838189896026245
sg88
F-0.16526982394142364
sg89
g107
sg51
I7
sbsI8
g0
(g81
g2
Ntp2637
Rp2638
(dp2639
g85
g106
sg87
F7.394990209561369
sg88
F-0.819349457559263
sg89
g107
sg51
I8
sbsI9
g0
(g81
g2
Ntp2640
Rp2641
(dp2642
g85
g106
sg87
F4.7172164288131855
sg88
F0.5924400641477402
sg89
g1644
sg51
I9
sbssg117
(dp2643
(I2
I5
tp2644
g0
(g120
g2
Ntp2645
Rp2646
(dp2647
g124
I00
sg125
F0.4086709175534551
sg126
I5
sg127
I2
sg128
I4
sbs(I2
I6
tp2648
g0
(g120
g2
Ntp2649
Rp2650
(dp2651
g124
I00
sg125
F1.5328654891651547
sg126
I6
sg127
I2
sg128
I5
sbs(I2
I7
tp2652
g0
(g120
g2
Ntp2653
Rp2654
(dp2655
g124
I00
sg125
F-0.29581321632671076
sg126
I7
sg127
I2
sg128
I6
sbs(I2
I8
tp2656
g0
(g120
g2
Ntp2657
Rp2658
(dp2659
g124
I01
sg125
F-1.9335047804619179
sg126
I8
sg127
I2
sg128
I7
sbs(I2
I9
tp2660
g0
(g120
g2
Ntp2661
Rp2662
(dp2663
g124
I01
sg125
F1.3534547368333867
sg126
I9
sg127
I2
sg128
I28
sbs(I9
I6
tp2664
g0
(g120
g2
Ntp2665
Rp2666
(dp2667
g124
I01
sg125
F1.6223115591696127
sg126
I6
sg127
I9
sg128
I23
sbssg141
I4
sg142
I5
sg143
g146
sg51
I571
sbag0
(g16
g2
Ntp2668
Rp2669
(dp2670
g20
(lp2671
g22
ag23
aS'a0'
p2672
aS'h0'
p2673
asg26
(lp2674
g28
aS'a0t0'
p2675
aS'a0t1'
p2676
aS'a0t2'
p2677
aS'a0t3'
p2678
asg33
(dp2679
sg35
(dp2680
I0
g0
(g37
g2
Ntp2681
Rp2682
(dp2683
g41
(dp2684
g43
g0
(g44
g2
Ntp2685
Rp2686
(dp2687
g48
F1.0
sg49
F0.0
sg50
F0.01
sg51
I1
sbsg52
g0
(g44
g2
Ntp2688
Rp2689
(dp2690
g48
F1.0
sg49
F0.0
sg50
F0.02
sg51
I1
sbsg56
g0
(g44
g2
Ntp2691
Rp2692
(dp2693
g48
F1.0
sg49
F0.0
sg50
F0.0
sg51
I1
sbsg60
g0
(g44
g2
Ntp2694
Rp2695
(dp2696
g48
F1.0
sg49
F0.0
sg50
F0.2
sg51
I1
sbsg64
g0
(g44
g2
Ntp2697
Rp2698
(dp2699
g48
F1.0
sg49
F0.0
sg50
F0.02
sg51
I1
sbsg68
g0
(g44
g2
Ntp2700
Rp2701
(dp2702
g48
F1.0
sg49
F0.0
sg50
F0.0
sg51
I1
sbssg51
I0
sbssg72
I4
sg73
I1
sg74
I1
sg75
I538
sg76
I538
sg77
I1
sg78
Nsg79
(dp2703
I0
g0
(g81
g2
Ntp2704
Rp2705
(dp2706
g85
g86
sg87
F4.924273
sg88
F0.0
sg89
g90
sg51
I0
sbsI1
g0
(g81
g2
Ntp2707
Rp2708
(dp2709
g85
g86
sg87
F4.924273
sg88
F0.0
sg89
g90
sg51
I1
sbsI2
g0
(g81
g2
Ntp2710
Rp2711
(dp2712
g85
g86
sg87
F4.924273
sg88
F0.0
sg89
g90
sg51
I2
sbsI3
g0
(g81
g2
Ntp2713
Rp2714
(dp2715
g85
g86
sg87
F4.924273
sg88
F0.0
sg89
g90
sg51
I3
sbsI4
g0
(g81
g2
Ntp2716
Rp2717
(dp2718
g85
g86
sg87
F4.924273
sg88
F0.0
sg89
g90
sg51
I4
sbsI5
g0
(g81
g2
Ntp2719
Rp2720
(dp2721
g85
g106
sg87
F5.282460160060456
sg88
F-0.030662567863819712
sg89
g107
sg51
I5
sbsI6
g0
(g81
g2
Ntp2722
Rp2723
(dp2724
g85
g106
sg87
F4.620820172534081
sg88
F0.7026659051951363
sg89
g107
sg51
I6
sbsI7
g0
(g81
g2
Ntp2725
Rp2726
(dp2727
g85
g106
sg87
F5.660294588660736
sg88
F-0.5622962116872292
sg89
g107
sg51
I7
sbsI8
g0
(g81
g2
Ntp2728
Rp2729
(dp2730
g85
g106
sg87
F7.313229859742509
sg88
F-1.158788466025032
sg89
g107
sg51
I8
sbssg117
(dp2731
(I2
I5
tp2732
g0
(g120
g2
Ntp2733
Rp2734
(dp2735
g124
I01
sg125
F-0.7012756302594568
sg126
I5
sg127
I2
sg128
I4
sbs(I2
I6
tp2736
g0
(g120
g2
Ntp2737
Rp2738
(dp2739
g124
I01
sg125
F1.1860757989510518
sg126
I6
sg127
I2
sg128
I5
sbs(I2
I7
tp2740
g0
(g120
g2
Ntp2741
Rp2742
(dp2743
g124
I00
sg125
F1.3182410621355487
sg126
I7
sg127
I2
sg128
I6
sbs(I2
I8
tp2744
g0
(g120
g2
Ntp2745
Rp2746
(dp2747
g124
I01
sg125
F-0.8019998916502168
sg126
I8
sg127
I2
sg128
I7
sbssg141
I4
sg142
I5
sg143
g146
sg51
I572
sbasS'age'
p2748
I20
sg51
I1
sS'representative'
p2749
g1846
sbasS'reproduction'
p2750
g0
(g154
g2
Ntp2751
Rp2752
(dp2753
S'stagnation'
p2754
g0
(g156
g2
Ntp2755
Rp2756
(dp2757
S'stagnant_counts'
p2758
(dp2759
I1
I1
ssS'previous_fitnesses'
p2760
(dp2761
I1
F-18.4375
ssS'reporters'
p2762
g0
(cneat.reporting
ReporterSet
p2763
g2
Ntp2764
Rp2765
(dp2766
g2762
(lp2767
g0
(cneat.reporting
StatisticsReporter
p2768
g2
Ntp2769
Rp2770
(dp2771
S'generation_statistics'
p2772
(lp2773
(dp2774
I1
(lp2775
F-39.0
aF-39.0
aF-49.0
aF-39.0
aF-39.0
aF-39.0
aF-39.0
aF-39.0
aF-45.5
aF-39.0
aF-39.0
aF-39.0
aF-39.0
aF-49.0
aF-39.0
aF-39.0
aF-139.0
aF-39.0
aF-39.0
aF-39.0
aF-39.0
aF-139.0
aF-39.0
aF-49.0
aF-49.0
aF-29.0
aF-39.0
aF-39.0
aF-49.0
aF-39.0
aF-39.0
aF-39.0
asa(dp2776
I1
(lp2777
F-29.0
aF-39.0
aF-39.0
aF-39.0
aF-39.0
aF-39.0
aF-39.0
aF-39.0
aF-39.0
aF-39.0
aF-39.0
aF-39.0
aF-49.0
aF-39.0
aF-29.0
aF-39.0
aF-39.0
aF-49.0
aF-39.0
aF-39.0
aF-39.0
aF-29.0
aF-39.0
aF-39.0
aF-39.0
aF-39.0
aF-49.0
aF-39.0
aF-39.0
aF-49.0
aF-39.0
aF-39.0
asa(dp2778
I1
(lp2779
F-29.0
aF-29.0
aF-29.0
aF-39.0
aF-39.0
aF-39.0
aF-29.0
aF-29.0
aF-39.0
aF-39.0
aF-39.0
aF-39.0
aF-39.0
aF-39.0
aF-39.0
aF-39.0
aF-26.0
aF-49.0
aF-29.0
aF-29.0
aF-39.0
aF-29.0
aF-49.0
aF-19.0
aF-28.0
aF-29.0
aF-39.0
aF-39.0
aF-39.0
aF-29.0
aF-109.0
aF-29.0
asa(dp2780
I1
(lp2781
F-19.0
aF-26.5
aF-28.0
aF-29.0
aF-29.0
aF-49.0
aF-109.0
aF-49.0
aF-49.0
aF-39.0
aF-49.0
aF-29.0
aF-29.0
aF-39.0
aF-29.0
aF-29.0
aF-39.0
aF-39.0
aF-29.0
aF-29.0
aF-49.0
aF-39.0
aF-39.0
aF-109.0
aF-49.0
aF-39.0
aF-27.5
aF-29.0
aF-27.0
aF-39.0
aF-39.0
aF-29.0
asa(dp2782
I1
(lp2783
F-19.0
aF-26.5
aF-24.0
aF-27.0
aF-28.5
aF-29.0
aF-19.0
aF-39.0
aF-29.0
aF-39.0
aF-39.0
aF-39.0
aF-29.0
aF-29.0
aF-39.0
aF-29.0
aF-29.0
aF-39.0
aF-39.0
aF-27.0
aF-39.0
aF-39.0
aF-29.0
aF-39.0
aF-27.5
aF-29.0
aF-29.0
aF-39.0
aF-24.5
aF-28.0
aF-29.0
aF-39.0
asa(dp2784
I1
(lp2785
F-19.0
aF-19.0
aF-25.0
aF-26.5
aF-26.0
aF-26.5
aF-39.0
aF-24.0
aF-26.5
aF-163.0
aF-29.0
aF-39.0
aF-28.0
aF-39.0
aF-39.0
aF-29.0
aF-29.0
aF-39.0
aF-39.0
aF-39.0
aF-24.0
aF-5.0
aF-39.0
aF-23.5
aF-5.5
aF-17.0
aF-29.0
aF-19.0
aF-27.0
aF-39.0
aF-29.0
aF-26.5
asa(dp2786
I1
(lp2787
F-7.0
aF-6.5
aF-20.0
aF-19.0
aF-19.0
aF-21.0
aF-39.0
aF-39.0
aF-24.5
aF-120.5
aF-29.0
aF-39.0
aF-19.0
aF-39.0
aF-17.0
aF-29.0
aF-29.0
aF-29.0
aF-29.0
aF-39.0
aF-39.0
aF-49.0
aF-49.0
aF-49.0
aF-22.0
aF-29.0
aF-29.0
aF-39.0
aF-39.0
aF-29.0
aF-6.0
aF-49.0
asa(dp2788
I1
(lp2789
F-6.5
aF-7.0
aF-6.0
aF-16.0
aF-19.0
aF-23.0
aF-109.0
aF-109.0
aF-25.0
aF-39.0
aF-22.5
aF-41.5
aF-39.0
aF-22.0
aF-39.0
aF-19.0
aF-29.0
aF-13.0
aF-39.0
aF-29.0
aF-109.0
aF-10.5
aF-39.0
aF-39.0
aF-49.0
aF-8.5
aF-29.0
aF-4.5
aF-29.0
aF-39.0
aF-29.0
aF-145.0
asa(dp2790
I1
(lp2791
F-0.5
aF-3.0
aF-5.5
aF-6.5
aF-8.0
aF-19.5
aF-18.5
aF-39.0
aF-7.5
aF-5.0
aF-49.0
aF-39.0
aF-16.0
aF-20.0
aF-39.0
aF-21.5
aF-9.0
aF-39.0
aF-39.0
aF-49.0
aF-6.5
aF-39.0
aF-39.0
aF-17.0
aF-27.5
aF-16.5
aF-2.5
aF-6.0
aF-129.5
aF-49.0
aF-109.0
aF-108.0
asa(dp2792
I1
(lp2793
F-7.0
aF-6.0
aF-6.0
aF-8.0
aF-6.0
aF-109.0
aF-39.0
aF-5.5
aF-22.5
aF-5.0
aF-4.5
aF-39.0
aF-39.0
aF-39.0
aF-109.0
aF-39.0
aF-39.0
aF-28.0
aF-20.5
aF-39.0
aF-39.0
aF-6.5
aF-39.0
aF-8.5
aF-15.5
aF-27.5
aF-24.0
aF-6.5
aF-6.5
aF-39.0
aF-7.5
aF-39.0
asa(dp2794
I1
(lp2795
F-7.0
aF-4.5
aF-8.0
aF-7.5
aF-7.0
aF-39.0
aF-5.5
aF-39.0
aF-49.0
aF-21.0
aF-39.0
aF-39.0
aF-39.0
aF-49.0
aF-24.0
aF-2.0
aF-7.5
aF-0.5
aF-39.0
aF-4.5
aF-39.0
aF-9.0
aF-3.5
aF-22.5
aF-39.0
aF-18.5
aF-7.5
aF-4.0
aF-6.0
aF-7.5
aF-39.0
aF-6.5
asa(dp2796
I1
(lp2797
F-8.5
aF-4.0
aF-6.5
aF-4.5
aF-6.0
aF-3.5
aF-7.5
aF-49.0
aF-14.5
aF-39.0
aF-7.0
aF-8.0
aF-39.0
aF-39.0
aF-8.0
aF-109.0
aF-49.0
aF-6.5
aF-39.0
aF-6.5
aF-122.5
aF-39.0
aF-7.0
aF-49.0
aF-20.0
aF-6.0
aF-8.0
aF-39.0
aF-7.0
aF-15.5
aF-39.0
aF-4.0
asa(dp2798
I1
(lp2799
F-6.5
aF-7.5
aF-2.5
aF-3.0
aF-7.5
aF-39.0
aF-7.0
aF-7.0
aF-21.5
aF-39.0
aF-6.0
aF-20.5
aF-21.5
aF-39.0
aF-7.0
aF-5.5
aF-23.0
aF-7.5
aF-17.5
aF-8.0
aF-25.0
aF-6.0
aF-8.0
aF-3.5
aF-7.0
aF-13.5
aF-4.0
aF-9.5
aF-21.5
aF-8.5
aF-5.0
aF-24.5
asa(dp2800
I1
(lp2801
F-7.5
aF-3.0
aF-6.5
aF-3.0
aF-7.0
aF-13.0
aF-7.5
aF-7.5
aF-5.0
aF-39.0
aF-39.0
aF-49.0
aF-5.5
aF-18.0
aF-39.0
aF-39.0
aF-109.0
aF-15.0
aF-6.5
aF-6.0
aF-17.0
aF-29.0
aF-5.0
aF-5.0
aF-49.0
aF-4.0
aF-25.5
aF-109.0
aF-10.5
aF-39.0
aF-3.5
aF-28.5
asa(dp2802
I1
(lp2803
F-7.0
aF-7.0
aF-4.0
aF-7.0
aF-5.0
aF-39.0
aF-2.5
aF-19.5
aF-39.0
aF-19.0
aF-49.0
aF-109.0
aF-49.0
aF-19.5
aF-39.0
aF-17.0
aF-18.0
aF-39.0
aF-13.5
aF-24.5
aF-3.5
aF-6.5
aF-39.0
aF-39.0
aF-4.0
aF-25.5
aF-9.5
aF-39.0
aF-5.0
aF-39.0
aF-6.0
aF-39.0
asa(dp2804
I1
(lp2805
F-5.5
aF-5.5
aF-7.0
aF-6.5
aF-7.0
aF-39.0
aF-109.0
aF-109.0
aF-39.0
aF-7.0
aF-3.0
aF-24.0
aF-39.0
aF-49.0
aF-49.0
aF-39.0
aF-20.0
aF-39.0
aF-23.5
aF-7.0
aF-39.0
aF-39.0
aF-6.0
aF-8.0
aF-20.5
aF-29.0
aF-109.0
aF-6.5
aF-6.0
aF-5.5
aF-39.0
aF-1.0
asa(dp2806
I1
(lp2807
F-5.0
aF-3.0
aF-6.5
aF-3.5
aF-4.0
aF-39.0
aF-4.0
aF-109.0
aF-7.0
aF-7.0
aF-39.0
aF-25.5
aF-39.0
aF-28.5
aF-2.5
aF-21.5
aF-23.5
aF-4.0
aF-26.5
aF-8.5
aF-39.0
aF-7.5
aF-109.0
aF-2.0
aF-39.0
aF-6.5
aF-4.5
aF-39.0
aF-5.5
aF-6.0
aF-6.5
aF-6.5
asa(dp2808
I1
(lp2809
F-3.5
aF-3.5
aF-7.0
aF-8.5
aF-5.5
aF-4.0
aF-6.5
aF-3.5
aF-7.0
aF-29.0
aF-4.0
aF-20.5
aF-39.0
aF-13.5
aF-26.0
aF-2.0
aF-6.5
aF-7.0
aF-14.0
aF-24.5
aF-23.0
aF-109.0
aF-21.5
aF-5.5
aF-5.5
aF-6.5
aF-109.0
aF-15.5
aF-4.0
aF-4.5
aF-6.0
aF-8.0
asa(dp2810
I1
(lp2811
F-3.0
aF-5.0
aF-6.0
aF-6.5
aF-5.0
aF-16.0
aF-17.5
aF-6.5
aF-18.5
aF-6.5
aF-15.0
aF-5.0
aF-109.0
aF-24.5
aF-18.0
aF-1.5
aF-16.0
aF-6.5
aF-9.0
aF-8.5
aF-5.0
aF-26.0
aF-5.5
aF-3.0
aF-17.0
aF-23.0
aF-6.0
aF-6.0
aF-9.0
aF-5.5
aF-21.0
aF-25.5
asa(dp2812
I1
(lp2813
F-8.0
aF-7.0
aF-13.0
aF-8.0
aF-4.0
aF-26.0
aF-19.0
aF-109.0
aF-7.5
aF-26.5
aF-25.5
aF-23.5
aF-8.0
aF-7.0
aF-7.5
aF-4.5
aF-39.0
aF-6.5
aF-11.0
aF-29.0
aF-8.5
aF-25.0
aF-25.5
aF-22.0
aF-5.5
aF-24.0
aF-11.5
aF-12.0
aF-6.0
aF-5.5
aF-16.0
aF-39.0
asasS'most_fit_genomes'
p2814
(lp2815
g0
(g16
g2
Ntp2816
Rp2817
(dp2818
g51
I26
sg143
g0
(g144
g2
Ntp2819
Rp2820
(dp2821
g210
(dp2822
g212
g156
sg213
g154
ssg192
(dp2823
g194
(lp2824
g198
ag201
asg202
(lp2825
g206
ag209
assg191
I5
sg190
I4
sg189
I0
sg187
g188
sg186
Nsg185
F30.0
sg184
F-30.0
sg183
I00
sg182
F1.0
sg180
(lp2826
g106
asg179
g16
sg178
I32
sg177
F0.95
sg176
F0.1
sg175
F0.1
sg174
F0.05
sg173
F0.05
sg172
F0.8
sg171
F0.5
sg170
F0.8
sg169
F0.5
sg168
F0.8
sg167
F0.1
sg166
F0.5
sg165
F0.0
sg164
F0.01
sg163
I01
sg162
F3.0
sg161
F1.0
sg160
F1.0
sg159
F0.5
sg158
g81
sg157
g120
sg155
g156
sg153
g154
sg152
I01
sg151
I01
sg150
I00
sg149
Nsg148
Nsbsg142
I5
sg141
I4
sg117
(dp2827
(I2
I5
tp2828
g0
(g120
g2
Ntp2829
Rp2830
(dp2831
g128
I4
sg127
I2
sg126
I5
sg125
F0.07633176868187601
sg124
I01
sbs(I2
I6
tp2832
g0
(g120
g2
Ntp2833
Rp2834
(dp2835
g128
I5
sg127
I2
sg126
I6
sg125
F0.43284998488236703
sg124
I01
sbs(I2
I7
tp2836
g0
(g120
g2
Ntp2837
Rp2838
(dp2839
g128
I6
sg127
I2
sg126
I7
sg125
F-0.47529246956184024
sg124
I01
sbs(I2
I8
tp2840
g0
(g120
g2
Ntp2841
Rp2842
(dp2843
g128
I7
sg127
I2
sg126
I8
sg125
F-0.25461348057635785
sg124
I01
sbssg79
(dp2844
I0
g0
(g81
g2
Ntp2845
Rp2846
(dp2847
g51
I0
sg89
g90
sg88
F0.0
sg87
F4.924273
sg85
g86
sbsI1
g0
(g81
g2
Ntp2848
Rp2849
(dp2850
g51
I1
sg89
g90
sg88
F0.0
sg87
F4.924273
sg85
g86
sbsI2
g0
(g81
g2
Ntp2851
Rp2852
(dp2853
g51
I2
sg89
g90
sg88
F0.0
sg87
F4.924273
sg85
g86
sbsI3
g0
(g81
g2
Ntp2854
Rp2855
(dp2856
g51
I3
sg89
g90
sg88
F0.0
sg87
F4.924273
sg85
g86
sbsI4
g0
(g81
g2
Ntp2857
Rp2858
(dp2859
g51
I4
sg89
g90
sg88
F0.0
sg87
F4.924273
sg85
g86
sbsI5
g0
(g81
g2
Ntp2860
Rp2861
(dp2862
g51
I5
sg89
g107
sg88
F0.0
sg87
F4.924273
sg85
g106
sbsI6
g0
(g81
g2
Ntp2863
Rp2864
(dp2865
g51
I6
sg89
g107
sg88
F0.0
sg87
F4.924273
sg85
g106
sbsI7
g0
(g81
g2
Ntp2866
Rp2867
(dp2868
g51
I7
sg89
g107
sg88
F0.0
sg87
F4.924273
sg85
g106
sbsI8
g0
(g81
g2
Ntp2869
Rp2870
(dp2871
g51
I8
sg89
g107
sg88
F0.0
sg87
F4.924273
sg85
g106
sbssg78
F-29.0
sg77
I1
sg76
Nsg75
Nsg74
I1
sg73
I1
sg72
I4
sg35
(dp2872
I0
g0
(g37
g2
Ntp2873
Rp2874
(dp2875
g51
I0
sg41
(dp2876
g43
g0
(g44
g2
Ntp2877
Rp2878
(dp2879
g51
I1
sg50
F0.01
sg49
F0.0
sg48
F1.0
sbsg52
g0
(g44
g2
Ntp2880
Rp2881
(dp2882
g51
I1
sg50
F0.02
sg49
F0.0
sg48
F1.0
sbsg56
g0
(g44
g2
Ntp2883
Rp2884
(dp2885
g51
I1
sg50
F0.0
sg49
F0.0
sg48
F1.0
sbsg60
g0
(g44
g2
Ntp2886
Rp2887
(dp2888
g51
I1
sg50
F0.2
sg49
F0.0
sg48
F1.0
sbsg64
g0
(g44
g2
Ntp2889
Rp2890
(dp2891
g51
I1
sg50
F0.02
sg49
F0.0
sg48
F1.0
sbsg68
g0
(g44
g2
Ntp2892
Rp2893
(dp2894
g51
I1
sg50
F0.0
sg49
F0.0
sg48
F1.0
sbssbssg33
(dp2895
sg26
(lp2896
g28
aS'a0t0'
p2897
aS'a0t1'
p2898
aS'a0t2'
p2899
aS'a0t3'
p2900
asg20
(lp2901
g22
ag23
aS'a0'
p2902
aS'h0'
p2903
asbag0
(g16
g2
Ntp2904
Rp2905
(dp2906
g51
I26
sg143
g0
(g144
g2
Ntp2907
Rp2908
(dp2909
g210
(dp2910
g212
g156
sg213
g154
ssg192
(dp2911
g194
(lp2912
g198
ag201
asg202
(lp2913
g206
ag209
assg191
I5
sg190
I4
sg189
I0
sg187
g188
sg186
Nsg185
F30.0
sg184
F-30.0
sg183
I00
sg182
F1.0
sg180
(lp2914
g106
asg179
g16
sg178
I32
sg177
F0.95
sg176
F0.1
sg175
F0.1
sg174
F0.05
sg173
F0.05
sg172
F0.8
sg171
F0.5
sg170
F0.8
sg169
F0.5
sg168
F0.8
sg167
F0.1
sg166
F0.5
sg165
F0.0
sg164
F0.01
sg163
I01
sg162
F3.0
sg161
F1.0
sg160
F1.0
sg159
F0.5
sg158
g81
sg157
g120
sg155
g156
sg153
g154
sg152
I01
sg151
I01
sg150
I00
sg149
Nsg148
Nsbsg142
I5
sg141
I4
sg117
(dp2915
g2828
g0
(g120
g2
Ntp2916
Rp2917
(dp2918
g128
I4
sg127
I2
sg126
I5
sg125
F0.07633176868187601
sg124
I01
sbsg2832
g0
(g120
g2
Ntp2919
Rp2920
(dp2921
g128
I5
sg127
I2
sg126
I6
sg125
F0.43284998488236703
sg124
I01
sbsg2836
g0
(g120
g2
Ntp2922
Rp2923
(dp2924
g128
I6
sg127
I2
sg126
I7
sg125
F-0.47529246956184024
sg124
I01
sbsg2840
g0
(g120
g2
Ntp2925
Rp2926
(dp2927
g128
I7
sg127
I2
sg126
I8
sg125
F-0.25461348057635785
sg124
I01
sbssg79
(dp2928
I0
g0
(g81
g2
Ntp2929
Rp2930
(dp2931
g51
I0
sg89
g90
sg88
F0.0
sg87
F4.924273
sg85
g86
sbsI1
g0
(g81
g2
Ntp2932
Rp2933
(dp2934
g51
I1
sg89
g90
sg88
F0.0
sg87
F4.924273
sg85
g86
sbsI2
g0
(g81
g2
Ntp2935
Rp2936
(dp2937
g51
I2
sg89
g90
sg88
F0.0
sg87
F4.924273
sg85
g86
sbsI3
g0
(g81
g2
Ntp2938
Rp2939
(dp2940
g51
I3
sg89
g90
sg88
F0.0
sg87
F4.924273
sg85
g86
sbsI4
g0
(g81
g2
Ntp2941
Rp2942
(dp2943
g51
I4
sg89
g90
sg88
F0.0
sg87
F4.924273
sg85
g86
sbsI5
g0
(g81
g2
Ntp2944
Rp2945
(dp2946
g51
I5
sg89
g107
sg88
F0.0
sg87
F4.924273
sg85
g106
sbsI6
g0
(g81
g2
Ntp2947
Rp2948
(dp2949
g51
I6
sg89
g107
sg88
F0.0
sg87
F4.924273
sg85
g106
sbsI7
g0
(g81
g2
Ntp2950
Rp2951
(dp2952
g51
I7
sg89
g107
sg88
F0.0
sg87
F4.924273
sg85
g106
sbsI8
g0
(g81
g2
Ntp2953
Rp2954
(dp2955
g51
I8
sg89
g107
sg88
F0.0
sg87
F4.924273
sg85
g106
sbssg78
F-29.0
sg77
I1
sg76
Nsg75
Nsg74
I1
sg73
I1
sg72
I4
sg35
(dp2956
I0
g0
(g37
g2
Ntp2957
Rp2958
(dp2959
g51
I0
sg41
(dp2960
g43
g0
(g44
g2
Ntp2961
Rp2962
(dp2963
g51
I1
sg50
F0.01
sg49
F0.0
sg48
F1.0
sbsg52
g0
(g44
g2
Ntp2964
Rp2965
(dp2966
g51
I1
sg50
F0.02
sg49
F0.0
sg48
F1.0
sbsg56
g0
(g44
g2
Ntp2967
Rp2968
(dp2969
g51
I1
sg50
F0.0
sg49
F0.0
sg48
F1.0
sbsg60
g0
(g44
g2
Ntp2970
Rp2971
(dp2972
g51
I1
sg50
F0.2
sg49
F0.0
sg48
F1.0
sbsg64
g0
(g44
g2
Ntp2973
Rp2974
(dp2975
g51
I1
sg50
F0.02
sg49
F0.0
sg48
F1.0
sbsg68
g0
(g44
g2
Ntp2976
Rp2977
(dp2978
g51
I1
sg50
F0.0
sg49
F0.0
sg48
F1.0
sbssbssg33
(dp2979
sg26
(lp2980
g28
ag2897
ag2898
ag2899
ag2900
asg20
(lp2981
g22
ag23
ag2902
ag2903
asbag0
(g16
g2
Ntp2982
Rp2983
(dp2984
g51
I78
sg143
g0
(g144
g2
Ntp2985
Rp2986
(dp2987
g210
(dp2988
g212
g156
sg213
g154
ssg192
(dp2989
g194
(lp2990
g198
ag201
asg202
(lp2991
g206
ag209
assg191
I5
sg190
I4
sg189
I0
sg187
g188
sg186
Nsg185
F30.0
sg184
F-30.0
sg183
I00
sg182
F1.0
sg180
(lp2992
g106
asg179
g16
sg178
I32
sg177
F0.95
sg176
F0.1
sg175
F0.1
sg174
F0.05
sg173
F0.05
sg172
F0.8
sg171
F0.5
sg170
F0.8
sg169
F0.5
sg168
F0.8
sg167
F0.1
sg166
F0.5
sg165
F0.0
sg164
F0.01
sg163
I01
sg162
F3.0
sg161
F1.0
sg160
F1.0
sg159
F0.5
sg158
g81
sg157
g120
sg155
g156
sg153
g154
sg152
I01
sg151
I01
sg150
I00
sg149
Nsg148
Nsbsg142
I5
sg141
I4
sg117
(dp2993
(I2
I5
tp2994
g0
(g120
g2
Ntp2995
Rp2996
(dp2997
g128
I4
sg127
I2
sg126
I5
sg125
F0.018700978148990216
sg124
I01
sbs(I2
I6
tp2998
g0
(g120
g2
Ntp2999
Rp3000
(dp3001
g128
I5
sg127
I2
sg126
I6
sg125
F0.49116043872986315
sg124
I01
sbs(I2
I7
tp3002
g0
(g120
g2
Ntp3003
Rp3004
(dp3005
g128
I6
sg127
I2
sg126
I7
sg125
F-0.337209351731951
sg124
I01
sbs(I2
I8
tp3006
g0
(g120
g2
Ntp3007
Rp3008
(dp3009
g128
I7
sg127
I2
sg126
I8
sg125
F0.26834595212123347
sg124
I01
sbs(I6
I5
tp3010
g0
(g120
g2
Ntp3011
Rp3012
(dp3013
g128
I24
sg127
I6
sg126
I5
sg125
F-0.6849159360599821
sg124
I00
sbssg79
(dp3014
I0
g0
(g81
g2
Ntp3015
Rp3016
(dp3017
g51
I0
sg89
g90
sg88
F0.0
sg87
F4.924273
sg85
g86
sbsI1
g0
(g81
g2
Ntp3018
Rp3019
(dp3020
g51
I1
sg89
g90
sg88
F0.0
sg87
F4.924273
sg85
g86
sbsI2
g0
(g81
g2
Ntp3021
Rp3022
(dp3023
g51
I2
sg89
g90
sg88
F0.0
sg87
F4.924273
sg85
g86
sbsI3
g0
(g81
g2
Ntp3024
Rp3025
(dp3026
g51
I3
sg89
g90
sg88
F0.0
sg87
F4.924273
sg85
g86
sbsI4
g0
(g81
g2
Ntp3027
Rp3028
(dp3029
g51
I4
sg89
g90
sg88
F0.0
sg87
F4.924273
sg85
g86
sbsI5
g0
(g81
g2
Ntp3030
Rp3031
(dp3032
g51
I5
sg89
g107
sg88
F0.44586935953868034
sg87
F4.486483098554066
sg85
g106
sbsI6
g0
(g81
g2
Ntp3033
Rp3034
(dp3035
g51
I6
sg89
g107
sg88
F0.2350098964812234
sg87
F4.834612810996031
sg85
g106
sbsI7
g0
(g81
g2
Ntp3036
Rp3037
(dp3038
g51
I7
sg89
g107
sg88
F0.29973428209735065
sg87
F4.924273
sg85
g106
sbsI8
g0
(g81
g2
Ntp3039
Rp3040
(dp3041
g51
I8
sg89
g107
sg88
F-0.07858377207090689
sg87
F5.191872626877196
sg85
g106
sbssg78
F-19.0
sg77
I1
sg76
I1
sg75
I49
sg74
I1
sg73
I1
sg72
I4
sg35
(dp3042
I0
g0
(g37
g2
Ntp3043
Rp3044
(dp3045
g51
I0
sg41
(dp3046
g43
g0
(g44
g2
Ntp3047
Rp3048
(dp3049
g51
I1
sg50
F0.01
sg49
F0.0
sg48
F1.0
sbsg52
g0
(g44
g2
Ntp3050
Rp3051
(dp3052
g51
I1
sg50
F0.02
sg49
F0.0
sg48
F1.0
sbsg56
g0
(g44
g2
Ntp3053
Rp3054
(dp3055
g51
I1
sg50
F0.0
sg49
F0.0
sg48
F1.0
sbsg60
g0
(g44
g2
Ntp3056
Rp3057
(dp3058
g51
I1
sg50
F0.2
sg49
F0.0
sg48
F1.0
sbsg64
g0
(g44
g2
Ntp3059
Rp3060
(dp3061
g51
I1
sg50
F0.02
sg49
F0.0
sg48
F1.0
sbsg68
g0
(g44
g2
Ntp3062
Rp3063
(dp3064
g51
I1
sg50
F0.0
sg49
F0.0
sg48
F1.0
sbssbssg33
(dp3065
sg26
(lp3066
g28
aS'a0t0'
p3067
aS'a0t1'
p3068
aS'a0t2'
p3069
aS'a0t3'
p3070
asg20
(lp3071
g22
ag23
aS'a0'
p3072
aS'h0'
p3073
asbag0
(g16
g2
Ntp3074
Rp3075
(dp3076
g51
I78
sg143
g0
(g144
g2
Ntp3077
Rp3078
(dp3079
g210
(dp3080
g212
g156
sg213
g154
ssg192
(dp3081
g194
(lp3082
g198
ag201
asg202
(lp3083
g206
ag209
assg191
I5
sg190
I4
sg189
I0
sg187
g188
sg186
Nsg185
F30.0
sg184
F-30.0
sg183
I00
sg182
F1.0
sg180
(lp3084
g106
asg179
g16
sg178
I32
sg177
F0.95
sg176
F0.1
sg175
F0.1
sg174
F0.05
sg173
F0.05
sg172
F0.8
sg171
F0.5
sg170
F0.8
sg169
F0.5
sg168
F0.8
sg167
F0.1
sg166
F0.5
sg165
F0.0
sg164
F0.01
sg163
I01
sg162
F3.0
sg161
F1.0
sg160
F1.0
sg159
F0.5
sg158
g81
sg157
g120
sg155
g156
sg153
g154
sg152
I01
sg151
I01
sg150
I00
sg149
Nsg148
Nsbsg142
I5
sg141
I4
sg117
(dp3085
g2994
g0
(g120
g2
Ntp3086
Rp3087
(dp3088
g128
I4
sg127
I2
sg126
I5
sg125
F0.018700978148990216
sg124
I01
sbsg2998
g0
(g120
g2
Ntp3089
Rp3090
(dp3091
g128
I5
sg127
I2
sg126
I6
sg125
F0.49116043872986315
sg124
I01
sbsg3002
g0
(g120
g2
Ntp3092
Rp3093
(dp3094
g128
I6
sg127
I2
sg126
I7
sg125
F-0.337209351731951
sg124
I01
sbsg3006
g0
(g120
g2
Ntp3095
Rp3096
(dp3097
g128
I7
sg127
I2
sg126
I8
sg125
F0.26834595212123347
sg124
I01
sbsg3010
g0
(g120
g2
Ntp3098
Rp3099
(dp3100
g128
I24
sg127
I6
sg126
I5
sg125
F-0.6849159360599821
sg124
I00
sbssg79
(dp3101
I0
g0
(g81
g2
Ntp3102
Rp3103
(dp3104
g51
I0
sg89
g90
sg88
F0.0
sg87
F4.924273
sg85
g86
sbsI1
g0
(g81
g2
Ntp3105
Rp3106
(dp3107
g51
I1
sg89
g90
sg88
F0.0
sg87
F4.924273
sg85
g86
sbsI2
g0
(g81
g2
Ntp3108
Rp3109
(dp3110
g51
I2
sg89
g90
sg88
F0.0
sg87
F4.924273
sg85
g86
sbsI3
g0
(g81
g2
Ntp3111
Rp3112
(dp3113
g51
I3
sg89
g90
sg88
F0.0
sg87
F4.924273
sg85
g86
sbsI4
g0
(g81
g2
Ntp3114
Rp3115
(dp3116
g51
I4
sg89
g90
sg88
F0.0
sg87
F4.924273
sg85
g86
sbsI5
g0
(g81
g2
Ntp3117
Rp3118
(dp3119
g51
I5
sg89
g107
sg88
F0.44586935953868034
sg87
F4.486483098554066
sg85
g106
sbsI6
g0
(g81
g2
Ntp3120
Rp3121
(dp3122
g51
I6
sg89
g107
sg88
F0.2350098964812234
sg87
F4.834612810996031
sg85
g106
sbsI7
g0
(g81
g2
Ntp3123
Rp3124
(dp3125
g51
I7
sg89
g107
sg88
F0.29973428209735065
sg87
F4.924273
sg85
g106
sbsI8
g0
(g81
g2
Ntp3126
Rp3127
(dp3128
g51
I8
sg89
g107
sg88
F-0.07858377207090689
sg87
F5.191872626877196
sg85
g106
sbssg78
F-19.0
sg77
I1
sg76
I1
sg75
I49
sg74
I1
sg73
I1
sg72
I4
sg35
(dp3129
I0
g0
(g37
g2
Ntp3130
Rp3131
(dp3132
g51
I0
sg41
(dp3133
g43
g0
(g44
g2
Ntp3134
Rp3135
(dp3136
g51
I1
sg50
F0.01
sg49
F0.0
sg48
F1.0
sbsg52
g0
(g44
g2
Ntp3137
Rp3138
(dp3139
g51
I1
sg50
F0.02
sg49
F0.0
sg48
F1.0
sbsg56
g0
(g44
g2
Ntp3140
Rp3141
(dp3142
g51
I1
sg50
F0.0
sg49
F0.0
sg48
F1.0
sbsg60
g0
(g44
g2
Ntp3143
Rp3144
(dp3145
g51
I1
sg50
F0.2
sg49
F0.0
sg48
F1.0
sbsg64
g0
(g44
g2
Ntp3146
Rp3147
(dp3148
g51
I1
sg50
F0.02
sg49
F0.0
sg48
F1.0
sbsg68
g0
(g44
g2
Ntp3149
Rp3150
(dp3151
g51
I1
sg50
F0.0
sg49
F0.0
sg48
F1.0
sbssbssg33
(dp3152
sg26
(lp3153
g28
ag3067
ag3068
ag3069
ag3070
asg20
(lp3154
g22
ag23
ag3072
ag3073
asbag0
(g16
g2
Ntp3155
Rp3156
(dp3157
g51
I78
sg143
g0
(g144
g2
Ntp3158
Rp3159
(dp3160
g210
(dp3161
g212
g156
sg213
g154
ssg192
(dp3162
g194
(lp3163
g198
ag201
asg202
(lp3164
g206
ag209
assg191
I5
sg190
I4
sg189
I0
sg187
g188
sg186
Nsg185
F30.0
sg184
F-30.0
sg183
I00
sg182
F1.0
sg180
(lp3165
g106
asg179
g16
sg178
I32
sg177
F0.95
sg176
F0.1
sg175
F0.1
sg174
F0.05
sg173
F0.05
sg172
F0.8
sg171
F0.5
sg170
F0.8
sg169
F0.5
sg168
F0.8
sg167
F0.1
sg166
F0.5
sg165
F0.0
sg164
F0.01
sg163
I01
sg162
F3.0
sg161
F1.0
sg160
F1.0
sg159
F0.5
sg158
g81
sg157
g120
sg155
g156
sg153
g154
sg152
I01
sg151
I01
sg150
I00
sg149
Nsg148
Nsbsg142
I5
sg141
I4
sg117
(dp3166
g2994
g0
(g120
g2
Ntp3167
Rp3168
(dp3169
g128
I4
sg127
I2
sg126
I5
sg125
F0.018700978148990216
sg124
I01
sbsg2998
g0
(g120
g2
Ntp3170
Rp3171
(dp3172
g128
I5
sg127
I2
sg126
I6
sg125
F0.49116043872986315
sg124
I01
sbsg3002
g0
(g120
g2
Ntp3173
Rp3174
(dp3175
g128
I6
sg127
I2
sg126
I7
sg125
F-0.337209351731951
sg124
I01
sbsg3006
g0
(g120
g2
Ntp3176
Rp3177
(dp3178
g128
I7
sg127
I2
sg126
I8
sg125
F0.26834595212123347
sg124
I01
sbsg3010
g0
(g120
g2
Ntp3179
Rp3180
(dp3181
g128
I24
sg127
I6
sg126
I5
sg125
F-0.6849159360599821
sg124
I00
sbssg79
(dp3182
I0
g0
(g81
g2
Ntp3183
Rp3184
(dp3185
g51
I0
sg89
g90
sg88
F0.0
sg87
F4.924273
sg85
g86
sbsI1
g0
(g81
g2
Ntp3186
Rp3187
(dp3188
g51
I1
sg89
g90
sg88
F0.0
sg87
F4.924273
sg85
g86
sbsI2
g0
(g81
g2
Ntp3189
Rp3190
(dp3191
g51
I2
sg89
g90
sg88
F0.0
sg87
F4.924273
sg85
g86
sbsI3
g0
(g81
g2
Ntp3192
Rp3193
(dp3194
g51
I3
sg89
g90
sg88
F0.0
sg87
F4.924273
sg85
g86
sbsI4
g0
(g81
g2
Ntp3195
Rp3196
(dp3197
g51
I4
sg89
g90
sg88
F0.0
sg87
F4.924273
sg85
g86
sbsI5
g0
(g81
g2
Ntp3198
Rp3199
(dp3200
g51
I5
sg89
g107
sg88
F0.44586935953868034
sg87
F4.486483098554066
sg85
g106
sbsI6
g0
(g81
g2
Ntp3201
Rp3202
(dp3203
g51
I6
sg89
g107
sg88
F0.2350098964812234
sg87
F4.834612810996031
sg85
g106
sbsI7
g0
(g81
g2
Ntp3204
Rp3205
(dp3206
g51
I7
sg89
g107
sg88
F0.29973428209735065
sg87
F4.924273
sg85
g106
sbsI8
g0
(g81
g2
Ntp3207
Rp3208
(dp3209
g51
I8
sg89
g107
sg88
F-0.07858377207090689
sg87
F5.191872626877196
sg85
g106
sbssg78
F-19.0
sg77
I1
sg76
I1
sg75
I49
sg74
I1
sg73
I1
sg72
I4
sg35
(dp3210
I0
g0
(g37
g2
Ntp3211
Rp3212
(dp3213
g51
I0
sg41
(dp3214
g43
g0
(g44
g2
Ntp3215
Rp3216
(dp3217
g51
I1
sg50
F0.01
sg49
F0.0
sg48
F1.0
sbsg52
g0
(g44
g2
Ntp3218
Rp3219
(dp3220
g51
I1
sg50
F0.02
sg49
F0.0
sg48
F1.0
sbsg56
g0
(g44
g2
Ntp3221
Rp3222
(dp3223
g51
I1
sg50
F0.0
sg49
F0.0
sg48
F1.0
sbsg60
g0
(g44
g2
Ntp3224
Rp3225
(dp3226
g51
I1
sg50
F0.2
sg49
F0.0
sg48
F1.0
sbsg64
g0
(g44
g2
Ntp3227
Rp3228
(dp3229
g51
I1
sg50
F0.02
sg49
F0.0
sg48
F1.0
sbsg68
g0
(g44
g2
Ntp3230
Rp3231
(dp3232
g51
I1
sg50
F0.0
sg49
F0.0
sg48
F1.0
sbssbssg33
(dp3233
sg26
(lp3234
g28
ag3067
ag3068
ag3069
ag3070
asg20
(lp3235
g22
ag23
ag3072
ag3073
asbag0
(g16
g2
Ntp3236
Rp3237
(dp3238
g51
I157
sg143
g0
(g144
g2
Ntp3239
Rp3240
(dp3241
g210
(dp3242
g212
g156
sg213
g154
ssg192
(dp3243
g194
(lp3244
g198
ag201
asg202
(lp3245
g206
ag209
assg191
I5
sg190
I4
sg189
I0
sg187
g188
sg186
Nsg185
F30.0
sg184
F-30.0
sg183
I00
sg182
F1.0
sg180
(lp3246
g106
asg179
g16
sg178
I32
sg177
F0.95
sg176
F0.1
sg175
F0.1
sg174
F0.05
sg173
F0.05
sg172
F0.8
sg171
F0.5
sg170
F0.8
sg169
F0.5
sg168
F0.8
sg167
F0.1
sg166
F0.5
sg165
F0.0
sg164
F0.01
sg163
I01
sg162
F3.0
sg161
F1.0
sg160
F1.0
sg159
F0.5
sg158
g81
sg157
g120
sg155
g156
sg153
g154
sg152
I01
sg151
I01
sg150
I00
sg149
Nsg148
Nsbsg142
I5
sg141
I4
sg117
(dp3247
(I2
I5
tp3248
g0
(g120
g2
Ntp3249
Rp3250
(dp3251
g128
I4
sg127
I2
sg126
I5
sg125
F-0.6209841864454666
sg124
I01
sbs(I2
I6
tp3252
g0
(g120
g2
Ntp3253
Rp3254
(dp3255
g128
I5
sg127
I2
sg126
I6
sg125
F0.3672487048012232
sg124
I01
sbs(I2
I7
tp3256
g0
(g120
g2
Ntp3257
Rp3258
(dp3259
g128
I6
sg127
I2
sg126
I7
sg125
F-0.7581390918322204
sg124
I00
sbs(I2
I8
tp3260
g0
(g120
g2
Ntp3261
Rp3262
(dp3263
g128
I7
sg127
I2
sg126
I8
sg125
F-1.285982502818719
sg124
I01
sbssg79
(dp3264
I0
g0
(g81
g2
Ntp3265
Rp3266
(dp3267
g51
I0
sg89
g90
sg88
F0.0
sg87
F4.924273
sg85
g86
sbsI1
g0
(g81
g2
Ntp3268
Rp3269
(dp3270
g51
I1
sg89
g90
sg88
F0.0
sg87
F4.924273
sg85
g86
sbsI2
g0
(g81
g2
Ntp3271
Rp3272
(dp3273
g51
I2
sg89
g90
sg88
F0.0
sg87
F4.924273
sg85
g86
sbsI3
g0
(g81
g2
Ntp3274
Rp3275
(dp3276
g51
I3
sg89
g90
sg88
F0.0
sg87
F4.924273
sg85
g86
sbsI4
g0
(g81
g2
Ntp3277
Rp3278
(dp3279
g51
I4
sg89
g90
sg88
F0.0
sg87
F4.924273
sg85
g86
sbsI5
g0
(g81
g2
Ntp3280
Rp3281
(dp3282
g51
I5
sg89
g107
sg88
F-0.6232663286267189
sg87
F4.715635800529453
sg85
g106
sbsI6
g0
(g81
g2
Ntp3283
Rp3284
(dp3285
g51
I6
sg89
g107
sg88
F0.07588109670895968
sg87
F5.777831290020342
sg85
g106
sbsI7
g0
(g81
g2
Ntp3286
Rp3287
(dp3288
g51
I7
sg89
g107
sg88
F-0.18131052125567657
sg87
F5.5173508199988
sg85
g106
sbsI8
g0
(g81
g2
Ntp3289
Rp3290
(dp3291
g51
I8
sg89
g107
sg88
F-1.0228046540358329
sg87
F5.834279792236163
sg85
g106
sbssg78
F-5.0
sg77
I1
sg76
I128
sg75
I71
sg74
I1
sg73
I1
sg72
I4
sg35
(dp3292
I0
g0
(g37
g2
Ntp3293
Rp3294
(dp3295
g51
I0
sg41
(dp3296
g43
g0
(g44
g2
Ntp3297
Rp3298
(dp3299
g51
I1
sg50
F0.01
sg49
F0.0
sg48
F1.0
sbsg52
g0
(g44
g2
Ntp3300
Rp3301
(dp3302
g51
I1
sg50
F0.02
sg49
F0.0
sg48
F1.0
sbsg56
g0
(g44
g2
Ntp3303
Rp3304
(dp3305
g51
I1
sg50
F0.0
sg49
F0.0
sg48
F1.0
sbsg60
g0
(g44
g2
Ntp3306
Rp3307
(dp3308
g51
I1
sg50
F0.2
sg49
F0.0
sg48
F1.0
sbsg64
g0
(g44
g2
Ntp3309
Rp3310
(dp3311
g51
I1
sg50
F0.02
sg49
F0.0
sg48
F1.0
sbsg68
g0
(g44
g2
Ntp3312
Rp3313
(dp3314
g51
I1
sg50
F0.0
sg49
F0.0
sg48
F1.0
sbssbssg33
(dp3315
sg26
(lp3316
g28
aS'a0t0'
p3317
aS'a0t1'
p3318
aS'a0t2'
p3319
aS'a0t3'
p3320
asg20
(lp3321
g22
ag23
aS'a0'
p3322
aS'h0'
p3323
asbag0
(g16
g2
Ntp3324
Rp3325
(dp3326
g51
I193
sg143
g0
(g144
g2
Ntp3327
Rp3328
(dp3329
g210
(dp3330
g212
g156
sg213
g154
ssg192
(dp3331
g194
(lp3332
g198
ag201
asg202
(lp3333
g206
ag209
assg191
I5
sg190
I4
sg189
I0
sg187
g188
sg186
Nsg185
F30.0
sg184
F-30.0
sg183
I00
sg182
F1.0
sg180
(lp3334
g106
asg179
g16
sg178
I32
sg177
F0.95
sg176
F0.1
sg175
F0.1
sg174
F0.05
sg173
F0.05
sg172
F0.8
sg171
F0.5
sg170
F0.8
sg169
F0.5
sg168
F0.8
sg167
F0.1
sg166
F0.5
sg165
F0.0
sg164
F0.01
sg163
I01
sg162
F3.0
sg161
F1.0
sg160
F1.0
sg159
F0.5
sg158
g81
sg157
g120
sg155
g156
sg153
g154
sg152
I01
sg151
I01
sg150
I00
sg149
Nsg148
Nsbsg142
I5
sg141
I4
sg117
(dp3335
(I2
I5
tp3336
g0
(g120
g2
Ntp3337
Rp3338
(dp3339
g128
I4
sg127
I2
sg126
I5
sg125
F-0.34595811003163424
sg124
I01
sbs(I2
I6
tp3340
g0
(g120
g2
Ntp3341
Rp3342
(dp3343
g128
I5
sg127
I2
sg126
I6
sg125
F0.5538688408575785
sg124
I01
sbs(I2
I7
tp3344
g0
(g120
g2
Ntp3345
Rp3346
(dp3347
g128
I6
sg127
I2
sg126
I7
sg125
F-0.8776977831318564
sg124
I00
sbs(I2
I8
tp3348
g0
(g120
g2
Ntp3349
Rp3350
(dp3351
g128
I7
sg127
I2
sg126
I8
sg125
F-1.2225729624924087
sg124
I01
sbssg79
(dp3352
I0
g0
(g81
g2
Ntp3353
Rp3354
(dp3355
g51
I0
sg89
g90
sg88
F0.0
sg87
F4.924273
sg85
g86
sbsI1
g0
(g81
g2
Ntp3356
Rp3357
(dp3358
g51
I1
sg89
g90
sg88
F0.0
sg87
F4.924273
sg85
g86
sbsI2
g0
(g81
g2
Ntp3359
Rp3360
(dp3361
g51
I2
sg89
g90
sg88
F0.0
sg87
F4.924273
sg85
g86
sbsI3
g0
(g81
g2
Ntp3362
Rp3363
(dp3364
g51
I3
sg89
g90
sg88
F0.0
sg87
F4.924273
sg85
g86
sbsI4
g0
(g81
g2
Ntp3365
Rp3366
(dp3367
g51
I4
sg89
g90
sg88
F0.0
sg87
F4.924273
sg85
g86
sbsI5
g0
(g81
g2
Ntp3368
Rp3369
(dp3370
g51
I5
sg89
g107
sg88
F-0.20011671547095822
sg87
F5.398424083916295
sg85
g106
sbsI6
g0
(g81
g2
Ntp3371
Rp3372
(dp3373
g51
I6
sg89
g107
sg88
F0.8188679765757948
sg87
F6.219849374091938
sg85
g106
sbsI7
g0
(g81
g2
Ntp3374
Rp3375
(dp3376
g51
I7
sg89
g107
sg88
F-0.639946438575047
sg87
F5.25778835421295
sg85
g106
sbsI8
g0
(g81
g2
Ntp3377
Rp3378
(dp3379
g51
I8
sg89
g107
sg88
F-1.3229222826823002
sg87
F5.834279792236163
sg85
g106
sbssg78
F-6.0
sg77
I1
sg76
I161
sg75
I157
sg74
I1
sg73
I1
sg72
I4
sg35
(dp3380
I0
g0
(g37
g2
Ntp3381
Rp3382
(dp3383
g51
I0
sg41
(dp3384
g43
g0
(g44
g2
Ntp3385
Rp3386
(dp3387
g51
I1
sg50
F0.01
sg49
F0.0
sg48
F1.0
sbsg52
g0
(g44
g2
Ntp3388
Rp3389
(dp3390
g51
I1
sg50
F0.02
sg49
F0.0
sg48
F1.0
sbsg56
g0
(g44
g2
Ntp3391
Rp3392
(dp3393
g51
I1
sg50
F0.0
sg49
F0.0
sg48
F1.0
sbsg60
g0
(g44
g2
Ntp3394
Rp3395
(dp3396
g51
I1
sg50
F0.2
sg49
F0.0
sg48
F1.0
sbsg64
g0
(g44
g2
Ntp3397
Rp3398
(dp3399
g51
I1
sg50
F0.02
sg49
F0.0
sg48
F1.0
sbsg68
g0
(g44
g2
Ntp3400
Rp3401
(dp3402
g51
I1
sg50
F0.0
sg49
F0.0
sg48
F1.0
sbssbssg33
(dp3403
sg26
(lp3404
g28
aS'a0t0'
p3405
aS'a0t1'
p3406
aS'a0t2'
p3407
aS'a0t3'
p3408
asg20
(lp3409
g22
ag23
aS'a0'
p3410
aS'h0'
p3411
asbag0
(g16
g2
Ntp3412
Rp3413
(dp3414
g51
I217
sg143
g0
(g144
g2
Ntp3415
Rp3416
(dp3417
g210
(dp3418
g212
g156
sg213
g154
ssg192
(dp3419
g194
(lp3420
g198
ag201
asg202
(lp3421
g206
ag209
assg191
I5
sg190
I4
sg189
I0
sg187
g188
sg186
Nsg185
F30.0
sg184
F-30.0
sg183
I00
sg182
F1.0
sg180
(lp3422
g106
asg179
g16
sg178
I32
sg177
F0.95
sg176
F0.1
sg175
F0.1
sg174
F0.05
sg173
F0.05
sg172
F0.8
sg171
F0.5
sg170
F0.8
sg169
F0.5
sg168
F0.8
sg167
F0.1
sg166
F0.5
sg165
F0.0
sg164
F0.01
sg163
I01
sg162
F3.0
sg161
F1.0
sg160
F1.0
sg159
F0.5
sg158
g81
sg157
g120
sg155
g156
sg153
g154
sg152
I01
sg151
I01
sg150
I00
sg149
Nsg148
Nsbsg142
I5
sg141
I4
sg117
(dp3423
(I2
I5
tp3424
g0
(g120
g2
Ntp3425
Rp3426
(dp3427
g128
I4
sg127
I2
sg126
I5
sg125
F-0.6209841864454666
sg124
I01
sbs(I2
I6
tp3428
g0
(g120
g2
Ntp3429
Rp3430
(dp3431
g128
I5
sg127
I2
sg126
I6
sg125
F0.3672487048012232
sg124
I01
sbs(I2
I7
tp3432
g0
(g120
g2
Ntp3433
Rp3434
(dp3435
g128
I6
sg127
I2
sg126
I7
sg125
F-0.7788754470554191
sg124
I00
sbs(I2
I8
tp3436
g0
(g120
g2
Ntp3437
Rp3438
(dp3439
g128
I7
sg127
I2
sg126
I8
sg125
F-2.401357514001431
sg124
I01
sbssg79
(dp3440
I0
g0
(g81
g2
Ntp3441
Rp3442
(dp3443
g51
I0
sg89
g90
sg88
F0.0
sg87
F4.924273
sg85
g86
sbsI1
g0
(g81
g2
Ntp3444
Rp3445
(dp3446
g51
I1
sg89
g90
sg88
F0.0
sg87
F4.924273
sg85
g86
sbsI2
g0
(g81
g2
Ntp3447
Rp3448
(dp3449
g51
I2
sg89
g90
sg88
F0.0
sg87
F4.924273
sg85
g86
sbsI3
g0
(g81
g2
Ntp3450
Rp3451
(dp3452
g51
I3
sg89
g90
sg88
F0.0
sg87
F4.924273
sg85
g86
sbsI4
g0
(g81
g2
Ntp3453
Rp3454
(dp3455
g51
I4
sg89
g90
sg88
F0.0
sg87
F4.924273
sg85
g86
sbsI5
g0
(g81
g2
Ntp3456
Rp3457
(dp3458
g51
I5
sg89
g107
sg88
F-0.6232663286267189
sg87
F4.975517703717874
sg85
g106
sbsI6
g0
(g81
g2
Ntp3459
Rp3460
(dp3461
g51
I6
sg89
g107
sg88
F-0.019877928069337067
sg87
F5.444997903590903
sg85
g106
sbsI7
g0
(g81
g2
Ntp3462
Rp3463
(dp3464
g51
I7
sg89
g107
sg88
F-0.7557148339184198
sg87
F5.5173508199988
sg85
g106
sbsI8
g0
(g81
g2
Ntp3465
Rp3466
(dp3467
g51
I8
sg89
g107
sg88
F-0.40479052939819804
sg87
F5.988302972525109
sg85
g106
sbssg78
F-4.5
sg77
I1
sg76
I157
sg75
I157
sg74
I1
sg73
I1
sg72
I4
sg35
(dp3468
I0
g0
(g37
g2
Ntp3469
Rp3470
(dp3471
g51
I0
sg41
(dp3472
g43
g0
(g44
g2
Ntp3473
Rp3474
(dp3475
g51
I1
sg50
F0.01
sg49
F0.0
sg48
F1.0
sbsg52
g0
(g44
g2
Ntp3476
Rp3477
(dp3478
g51
I1
sg50
F0.02
sg49
F0.0
sg48
F1.0
sbsg56
g0
(g44
g2
Ntp3479
Rp3480
(dp3481
g51
I1
sg50
F0.0
sg49
F0.0
sg48
F1.0
sbsg60
g0
(g44
g2
Ntp3482
Rp3483
(dp3484
g51
I1
sg50
F0.2
sg49
F0.0
sg48
F1.0
sbsg64
g0
(g44
g2
Ntp3485
Rp3486
(dp3487
g51
I1
sg50
F0.02
sg49
F0.0
sg48
F1.0
sbsg68
g0
(g44
g2
Ntp3488
Rp3489
(dp3490
g51
I1
sg50
F0.0
sg49
F0.0
sg48
F1.0
sbssbssg33
(dp3491
sg26
(lp3492
g28
aS'a0t0'
p3493
aS'a0t1'
p3494
aS'a0t2'
p3495
aS'a0t3'
p3496
asg20
(lp3497
g22
ag23
aS'a0'
p3498
aS'h0'
p3499
asbag0
(g16
g2
Ntp3500
Rp3501
(dp3502
g51
I217
sg143
g0
(g144
g2
Ntp3503
Rp3504
(dp3505
g210
(dp3506
g212
g156
sg213
g154
ssg192
(dp3507
g194
(lp3508
g198
ag201
asg202
(lp3509
g206
ag209
assg191
I5
sg190
I4
sg189
I0
sg187
g188
sg186
Nsg185
F30.0
sg184
F-30.0
sg183
I00
sg182
F1.0
sg180
(lp3510
g106
asg179
g16
sg178
I32
sg177
F0.95
sg176
F0.1
sg175
F0.1
sg174
F0.05
sg173
F0.05
sg172
F0.8
sg171
F0.5
sg170
F0.8
sg169
F0.5
sg168
F0.8
sg167
F0.1
sg166
F0.5
sg165
F0.0
sg164
F0.01
sg163
I01
sg162
F3.0
sg161
F1.0
sg160
F1.0
sg159
F0.5
sg158
g81
sg157
g120
sg155
g156
sg153
g154
sg152
I01
sg151
I01
sg150
I00
sg149
Nsg148
Nsbsg142
I5
sg141
I4
sg117
(dp3511
g3424
g0
(g120
g2
Ntp3512
Rp3513
(dp3514
g128
I4
sg127
I2
sg126
I5
sg125
F-0.6209841864454666
sg124
I01
sbsg3428
g0
(g120
g2
Ntp3515
Rp3516
(dp3517
g128
I5
sg127
I2
sg126
I6
sg125
F0.3672487048012232
sg124
I01
sbsg3432
g0
(g120
g2
Ntp3518
Rp3519
(dp3520
g128
I6
sg127
I2
sg126
I7
sg125
F-0.7788754470554191
sg124
I00
sbsg3436
g0
(g120
g2
Ntp3521
Rp3522
(dp3523
g128
I7
sg127
I2
sg126
I8
sg125
F-2.401357514001431
sg124
I01
sbssg79
(dp3524
I0
g0
(g81
g2
Ntp3525
Rp3526
(dp3527
g51
I0
sg89
g90
sg88
F0.0
sg87
F4.924273
sg85
g86
sbsI1
g0
(g81
g2
Ntp3528
Rp3529
(dp3530
g51
I1
sg89
g90
sg88
F0.0
sg87
F4.924273
sg85
g86
sbsI2
g0
(g81
g2
Ntp3531
Rp3532
(dp3533
g51
I2
sg89
g90
sg88
F0.0
sg87
F4.924273
sg85
g86
sbsI3
g0
(g81
g2
Ntp3534
Rp3535
(dp3536
g51
I3
sg89
g90
sg88
F0.0
sg87
F4.924273
sg85
g86
sbsI4
g0
(g81
g2
Ntp3537
Rp3538
(dp3539
g51
I4
sg89
g90
sg88
F0.0
sg87
F4.924273
sg85
g86
sbsI5
g0
(g81
g2
Ntp3540
Rp3541
(dp3542
g51
I5
sg89
g107
sg88
F-0.6232663286267189
sg87
F4.975517703717874
sg85
g106
sbsI6
g0
(g81
g2
Ntp3543
Rp3544
(dp3545
g51
I6
sg89
g107
sg88
F-0.019877928069337067
sg87
F5.444997903590903
sg85
g106
sbsI7
g0
(g81
g2
Ntp3546
Rp3547
(dp3548
g51
I7
sg89
g107
sg88
F-0.7557148339184198
sg87
F5.5173508199988
sg85
g106
sbsI8
g0
(g81
g2
Ntp3549
Rp3550
(dp3551
g51
I8
sg89
g107
sg88
F-0.40479052939819804
sg87
F5.988302972525109
sg85
g106
sbssg78
F-0.5
sg77
I1
sg76
I157
sg75
I157
sg74
I1
sg73
I1
sg72
I4
sg35
(dp3552
I0
g0
(g37
g2
Ntp3553
Rp3554
(dp3555
g51
I0
sg41
(dp3556
g43
g0
(g44
g2
Ntp3557
Rp3558
(dp3559
g51
I1
sg50
F0.01
sg49
F0.0
sg48
F1.0
sbsg52
g0
(g44
g2
Ntp3560
Rp3561
(dp3562
g51
I1
sg50
F0.02
sg49
F0.0
sg48
F1.0
sbsg56
g0
(g44
g2
Ntp3563
Rp3564
(dp3565
g51
I1
sg50
F0.0
sg49
F0.0
sg48
F1.0
sbsg60
g0
(g44
g2
Ntp3566
Rp3567
(dp3568
g51
I1
sg50
F0.2
sg49
F0.0
sg48
F1.0
sbsg64
g0
(g44
g2
Ntp3569
Rp3570
(dp3571
g51
I1
sg50
F0.02
sg49
F0.0
sg48
F1.0
sbsg68
g0
(g44
g2
Ntp3572
Rp3573
(dp3574
g51
I1
sg50
F0.0
sg49
F0.0
sg48
F1.0
sbssbssg33
(dp3575
sg26
(lp3576
g28
ag3493
ag3494
ag3495
ag3496
asg20
(lp3577
g22
ag23
ag3498
ag3499
asbag0
(g16
g2
Ntp3578
Rp3579
(dp3580
g51
I254
sg143
g0
(g144
g2
Ntp3581
Rp3582
(dp3583
g210
(dp3584
g212
g156
sg213
g154
ssg192
(dp3585
g194
(lp3586
g198
ag201
asg202
(lp3587
g206
ag209
assg191
I5
sg190
I4
sg189
I0
sg187
g188
sg186
Nsg185
F30.0
sg184
F-30.0
sg183
I00
sg182
F1.0
sg180
(lp3588
g106
asg179
g16
sg178
I32
sg177
F0.95
sg176
F0.1
sg175
F0.1
sg174
F0.05
sg173
F0.05
sg172
F0.8
sg171
F0.5
sg170
F0.8
sg169
F0.5
sg168
F0.8
sg167
F0.1
sg166
F0.5
sg165
F0.0
sg164
F0.01
sg163
I01
sg162
F3.0
sg161
F1.0
sg160
F1.0
sg159
F0.5
sg158
g81
sg157
g120
sg155
g156
sg153
g154
sg152
I01
sg151
I01
sg150
I00
sg149
Nsg148
Nsbsg142
I5
sg141
I4
sg117
(dp3589
(I2
I5
tp3590
g0
(g120
g2
Ntp3591
Rp3592
(dp3593
g128
I4
sg127
I2
sg126
I5
sg125
F-0.6209841864454666
sg124
I01
sbs(I2
I6
tp3594
g0
(g120
g2
Ntp3595
Rp3596
(dp3597
g128
I5
sg127
I2
sg126
I6
sg125
F0.3672487048012232
sg124
I01
sbs(I2
I7
tp3598
g0
(g120
g2
Ntp3599
Rp3600
(dp3601
g128
I6
sg127
I2
sg126
I7
sg125
F-0.862771554011441
sg124
I00
sbs(I2
I8
tp3602
g0
(g120
g2
Ntp3603
Rp3604
(dp3605
g128
I7
sg127
I2
sg126
I8
sg125
F-1.285982502818719
sg124
I01
sbssg79
(dp3606
I0
g0
(g81
g2
Ntp3607
Rp3608
(dp3609
g51
I0
sg89
g90
sg88
F0.0
sg87
F4.924273
sg85
g86
sbsI1
g0
(g81
g2
Ntp3610
Rp3611
(dp3612
g51
I1
sg89
g90
sg88
F0.0
sg87
F4.924273
sg85
g86
sbsI2
g0
(g81
g2
Ntp3613
Rp3614
(dp3615
g51
I2
sg89
g90
sg88
F0.0
sg87
F4.924273
sg85
g86
sbsI3
g0
(g81
g2
Ntp3616
Rp3617
(dp3618
g51
I3
sg89
g90
sg88
F0.0
sg87
F4.924273
sg85
g86
sbsI4
g0
(g81
g2
Ntp3619
Rp3620
(dp3621
g51
I4
sg89
g90
sg88
F0.0
sg87
F4.924273
sg85
g86
sbsI5
g0
(g81
g2
Ntp3622
Rp3623
(dp3624
g51
I5
sg89
g107
sg88
F-0.6232663286267189
sg87
F3.9430855228535973
sg85
g106
sbsI6
g0
(g81
g2
Ntp3625
Rp3626
(dp3627
g51
I6
sg89
g107
sg88
F0.29460249946897854
sg87
F5.444997903590903
sg85
g106
sbsI7
g0
(g81
g2
Ntp3628
Rp3629
(dp3630
g51
I7
sg89
g107
sg88
F-0.04146713520672418
sg87
F6.323122821141736
sg85
g106
sbsI8
g0
(g81
g2
Ntp3631
Rp3632
(dp3633
g51
I8
sg89
g107
sg88
F-1.0228046540358329
sg87
F6.525916492336114
sg85
g106
sbssg78
F-4.5
sg77
I1
sg76
I157
sg75
I217
sg74
I1
sg73
I1
sg72
I4
sg35
(dp3634
I0
g0
(g37
g2
Ntp3635
Rp3636
(dp3637
g51
I0
sg41
(dp3638
g43
g0
(g44
g2
Ntp3639
Rp3640
(dp3641
g51
I1
sg50
F0.01
sg49
F0.0
sg48
F1.0
sbsg52
g0
(g44
g2
Ntp3642
Rp3643
(dp3644
g51
I1
sg50
F0.02
sg49
F0.0
sg48
F1.0
sbsg56
g0
(g44
g2
Ntp3645
Rp3646
(dp3647
g51
I1
sg50
F0.0
sg49
F0.0
sg48
F1.0
sbsg60
g0
(g44
g2
Ntp3648
Rp3649
(dp3650
g51
I1
sg50
F0.2
sg49
F0.0
sg48
F1.0
sbsg64
g0
(g44
g2
Ntp3651
Rp3652
(dp3653
g51
I1
sg50
F0.02
sg49
F0.0
sg48
F1.0
sbsg68
g0
(g44
g2
Ntp3654
Rp3655
(dp3656
g51
I1
sg50
F0.0
sg49
F0.0
sg48
F1.0
sbssbssg33
(dp3657
sg26
(lp3658
g28
aS'a0t0'
p3659
aS'a0t1'
p3660
aS'a0t2'
p3661
aS'a0t3'
p3662
asg20
(lp3663
g22
ag23
aS'a0'
p3664
aS'h0'
p3665
asbag0
(g16
g2
Ntp3666
Rp3667
(dp3668
g51
I288
sg143
g0
(g144
g2
Ntp3669
Rp3670
(dp3671
g210
(dp3672
g212
g156
sg213
g154
ssg192
(dp3673
g194
(lp3674
g198
ag201
asg202
(lp3675
g206
ag209
assg191
I5
sg190
I4
sg189
I0
sg187
g188
sg186
Nsg185
F30.0
sg184
F-30.0
sg183
I00
sg182
F1.0
sg180
(lp3676
g106
asg179
g16
sg178
I32
sg177
F0.95
sg176
F0.1
sg175
F0.1
sg174
F0.05
sg173
F0.05
sg172
F0.8
sg171
F0.5
sg170
F0.8
sg169
F0.5
sg168
F0.8
sg167
F0.1
sg166
F0.5
sg165
F0.0
sg164
F0.01
sg163
I01
sg162
F3.0
sg161
F1.0
sg160
F1.0
sg159
F0.5
sg158
g81
sg157
g120
sg155
g156
sg153
g154
sg152
I01
sg151
I01
sg150
I00
sg149
Nsg148
Nsbsg142
I5
sg141
I4
sg117
(dp3677
(I2
I5
tp3678
g0
(g120
g2
Ntp3679
Rp3680
(dp3681
g128
I4
sg127
I2
sg126
I5
sg125
F-0.10577034022279427
sg124
I01
sbs(I2
I6
tp3682
g0
(g120
g2
Ntp3683
Rp3684
(dp3685
g128
I5
sg127
I2
sg126
I6
sg125
F0.3672487048012232
sg124
I01
sbs(I2
I7
tp3686
g0
(g120
g2
Ntp3687
Rp3688
(dp3689
g128
I6
sg127
I2
sg126
I7
sg125
F-0.7994641544968736
sg124
I00
sbs(I2
I8
tp3690
g0
(g120
g2
Ntp3691
Rp3692
(dp3693
g128
I7
sg127
I2
sg126
I8
sg125
F-1.7837656123686578
sg124
I01
sbssg79
(dp3694
I0
g0
(g81
g2
Ntp3695
Rp3696
(dp3697
g51
I0
sg89
g90
sg88
F0.0
sg87
F4.924273
sg85
g86
sbsI1
g0
(g81
g2
Ntp3698
Rp3699
(dp3700
g51
I1
sg89
g90
sg88
F0.0
sg87
F4.924273
sg85
g86
sbsI2
g0
(g81
g2
Ntp3701
Rp3702
(dp3703
g51
I2
sg89
g90
sg88
F0.0
sg87
F4.924273
sg85
g86
sbsI3
g0
(g81
g2
Ntp3704
Rp3705
(dp3706
g51
I3
sg89
g90
sg88
F0.0
sg87
F4.924273
sg85
g86
sbsI4
g0
(g81
g2
Ntp3707
Rp3708
(dp3709
g51
I4
sg89
g90
sg88
F0.0
sg87
F4.924273
sg85
g86
sbsI5
g0
(g81
g2
Ntp3710
Rp3711
(dp3712
g51
I5
sg89
g107
sg88
F-0.6891141171067946
sg87
F4.245359215504207
sg85
g106
sbsI6
g0
(g81
g2
Ntp3713
Rp3714
(dp3715
g51
I6
sg89
g107
sg88
F0.05498780295190017
sg87
F5.891947299738054
sg85
g106
sbsI7
g0
(g81
g2
Ntp3716
Rp3717
(dp3718
g51
I7
sg89
g107
sg88
F0.23389676138087162
sg87
F5.5173508199988
sg85
g106
sbsI8
g0
(g81
g2
Ntp3719
Rp3720
(dp3721
g51
I8
sg89
g107
sg88
F-0.7524539780201891
sg87
F6.525916492336114
sg85
g106
sbssg78
F-0.5
sg77
I1
sg76
I157
sg75
I254
sg74
I1
sg73
I1
sg72
I4
sg35
(dp3722
I0
g0
(g37
g2
Ntp3723
Rp3724
(dp3725
g51
I0
sg41
(dp3726
g43
g0
(g44
g2
Ntp3727
Rp3728
(dp3729
g51
I1
sg50
F0.01
sg49
F0.0
sg48
F1.0
sbsg52
g0
(g44
g2
Ntp3730
Rp3731
(dp3732
g51
I1
sg50
F0.02
sg49
F0.0
sg48
F1.0
sbsg56
g0
(g44
g2
Ntp3733
Rp3734
(dp3735
g51
I1
sg50
F0.0
sg49
F0.0
sg48
F1.0
sbsg60
g0
(g44
g2
Ntp3736
Rp3737
(dp3738
g51
I1
sg50
F0.2
sg49
F0.0
sg48
F1.0
sbsg64
g0
(g44
g2
Ntp3739
Rp3740
(dp3741
g51
I1
sg50
F0.02
sg49
F0.0
sg48
F1.0
sbsg68
g0
(g44
g2
Ntp3742
Rp3743
(dp3744
g51
I1
sg50
F0.0
sg49
F0.0
sg48
F1.0
sbssbssg33
(dp3745
sg26
(lp3746
g28
aS'a0t0'
p3747
aS'a0t1'
p3748
aS'a0t2'
p3749
aS'a0t3'
p3750
asg20
(lp3751
g22
ag23
aS'a0'
p3752
aS'h0'
p3753
asbag0
(g16
g2
Ntp3754
Rp3755
(dp3756
g51
I303
sg143
g0
(g144
g2
Ntp3757
Rp3758
(dp3759
g210
(dp3760
g212
g156
sg213
g154
ssg192
(dp3761
g194
(lp3762
g198
ag201
asg202
(lp3763
g206
ag209
assg191
I5
sg190
I4
sg189
I0
sg187
g188
sg186
Nsg185
F30.0
sg184
F-30.0
sg183
I00
sg182
F1.0
sg180
(lp3764
g106
asg179
g16
sg178
I32
sg177
F0.95
sg176
F0.1
sg175
F0.1
sg174
F0.05
sg173
F0.05
sg172
F0.8
sg171
F0.5
sg170
F0.8
sg169
F0.5
sg168
F0.8
sg167
F0.1
sg166
F0.5
sg165
F0.0
sg164
F0.01
sg163
I01
sg162
F3.0
sg161
F1.0
sg160
F1.0
sg159
F0.5
sg158
g81
sg157
g120
sg155
g156
sg153
g154
sg152
I01
sg151
I01
sg150
I00
sg149
Nsg148
Nsbsg142
I5
sg141
I4
sg117
(dp3765
(I2
I5
tp3766
g0
(g120
g2
Ntp3767
Rp3768
(dp3769
g128
I4
sg127
I2
sg126
I5
sg125
F-0.5214657451798641
sg124
I01
sbs(I2
I6
tp3770
g0
(g120
g2
Ntp3771
Rp3772
(dp3773
g128
I5
sg127
I2
sg126
I6
sg125
F1.2284102063179942
sg124
I01
sbs(I2
I7
tp3774
g0
(g120
g2
Ntp3775
Rp3776
(dp3777
g128
I6
sg127
I2
sg126
I7
sg125
F0.17457512515304013
sg124
I00
sbs(I2
I8
tp3778
g0
(g120
g2
Ntp3779
Rp3780
(dp3781
g128
I7
sg127
I2
sg126
I8
sg125
F-1.492349358288037
sg124
I01
sbssg79
(dp3782
I0
g0
(g81
g2
Ntp3783
Rp3784
(dp3785
g51
I0
sg89
g90
sg88
F0.0
sg87
F4.924273
sg85
g86
sbsI1
g0
(g81
g2
Ntp3786
Rp3787
(dp3788
g51
I1
sg89
g90
sg88
F0.0
sg87
F4.924273
sg85
g86
sbsI2
g0
(g81
g2
Ntp3789
Rp3790
(dp3791
g51
I2
sg89
g90
sg88
F0.0
sg87
F4.924273
sg85
g86
sbsI3
g0
(g81
g2
Ntp3792
Rp3793
(dp3794
g51
I3
sg89
g90
sg88
F0.0
sg87
F4.924273
sg85
g86
sbsI4
g0
(g81
g2
Ntp3795
Rp3796
(dp3797
g51
I4
sg89
g90
sg88
F0.0
sg87
F4.924273
sg85
g86
sbsI5
g0
(g81
g2
Ntp3798
Rp3799
(dp3800
g51
I5
sg89
g107
sg88
F0.6436974316560602
sg87
F4.578253043584882
sg85
g106
sbsI6
g0
(g81
g2
Ntp3801
Rp3802
(dp3803
g51
I6
sg89
g107
sg88
F-1.6155015984937926
sg87
F5.631429896114494
sg85
g106
sbsI7
g0
(g81
g2
Ntp3804
Rp3805
(dp3806
g51
I7
sg89
g107
sg88
F-0.6487871955189269
sg87
F6.312201246128095
sg85
g106
sbsI8
g0
(g81
g2
Ntp3807
Rp3808
(dp3809
g51
I8
sg89
g107
sg88
F-0.2848309721086606
sg87
F6.352815345521606
sg85
g106
sbssg78
F-3.5
sg77
I1
sg76
I293
sg75
I253
sg74
I1
sg73
I1
sg72
I4
sg35
(dp3810
I0
g0
(g37
g2
Ntp3811
Rp3812
(dp3813
g51
I0
sg41
(dp3814
g43
g0
(g44
g2
Ntp3815
Rp3816
(dp3817
g51
I1
sg50
F0.01
sg49
F0.0
sg48
F1.0
sbsg52
g0
(g44
g2
Ntp3818
Rp3819
(dp3820
g51
I1
sg50
F0.02
sg49
F0.0
sg48
F1.0
sbsg56
g0
(g44
g2
Ntp3821
Rp3822
(dp3823
g51
I1
sg50
F0.0
sg49
F0.0
sg48
F1.0
sbsg60
g0
(g44
g2
Ntp3824
Rp3825
(dp3826
g51
I1
sg50
F0.2
sg49
F0.0
sg48
F1.0
sbsg64
g0
(g44
g2
Ntp3827
Rp3828
(dp3829
g51
I1
sg50
F0.02
sg49
F0.0
sg48
F1.0
sbsg68
g0
(g44
g2
Ntp3830
Rp3831
(dp3832
g51
I1
sg50
F0.0
sg49
F0.0
sg48
F1.0
sbssbssg33
(dp3833
sg26
(lp3834
g28
aS'a0t0'
p3835
aS'a0t1'
p3836
aS'a0t2'
p3837
aS'a0t3'
p3838
asg20
(lp3839
g22
ag23
aS'a0'
p3840
aS'h0'
p3841
asbag0
(g16
g2
Ntp3842
Rp3843
(dp3844
g51
I329
sg143
g0
(g144
g2
Ntp3845
Rp3846
(dp3847
g210
(dp3848
g212
g156
sg213
g154
ssg192
(dp3849
g194
(lp3850
g198
ag201
asg202
(lp3851
g206
ag209
assg191
I5
sg190
I4
sg189
I0
sg187
g188
sg186
Nsg185
F30.0
sg184
F-30.0
sg183
I00
sg182
F1.0
sg180
(lp3852
g106
asg179
g16
sg178
I32
sg177
F0.95
sg176
F0.1
sg175
F0.1
sg174
F0.05
sg173
F0.05
sg172
F0.8
sg171
F0.5
sg170
F0.8
sg169
F0.5
sg168
F0.8
sg167
F0.1
sg166
F0.5
sg165
F0.0
sg164
F0.01
sg163
I01
sg162
F3.0
sg161
F1.0
sg160
F1.0
sg159
F0.5
sg158
g81
sg157
g120
sg155
g156
sg153
g154
sg152
I01
sg151
I01
sg150
I00
sg149
Nsg148
Nsbsg142
I5
sg141
I4
sg117
(dp3853
(I2
I5
tp3854
g0
(g120
g2
Ntp3855
Rp3856
(dp3857
g128
I4
sg127
I2
sg126
I5
sg125
F-0.7774914542711664
sg124
I01
sbs(I2
I6
tp3858
g0
(g120
g2
Ntp3859
Rp3860
(dp3861
g128
I5
sg127
I2
sg126
I6
sg125
F1.090997461995509
sg124
I01
sbs(I2
I7
tp3862
g0
(g120
g2
Ntp3863
Rp3864
(dp3865
g128
I6
sg127
I2
sg126
I7
sg125
F0.9614164655820665
sg124
I00
sbs(I2
I8
tp3866
g0
(g120
g2
Ntp3867
Rp3868
(dp3869
g128
I7
sg127
I2
sg126
I8
sg125
F-1.1035361983744716
sg124
I01
sbssg79
(dp3870
I0
g0
(g81
g2
Ntp3871
Rp3872
(dp3873
g51
I0
sg89
g90
sg88
F0.0
sg87
F4.924273
sg85
g86
sbsI1
g0
(g81
g2
Ntp3874
Rp3875
(dp3876
g51
I1
sg89
g90
sg88
F0.0
sg87
F4.924273
sg85
g86
sbsI2
g0
(g81
g2
Ntp3877
Rp3878
(dp3879
g51
I2
sg89
g90
sg88
F0.0
sg87
F4.924273
sg85
g86
sbsI3
g0
(g81
g2
Ntp3880
Rp3881
(dp3882
g51
I3
sg89
g90
sg88
F0.0
sg87
F4.924273
sg85
g86
sbsI4
g0
(g81
g2
Ntp3883
Rp3884
(dp3885
g51
I4
sg89
g90
sg88
F0.0
sg87
F4.924273
sg85
g86
sbsI5
g0
(g81
g2
Ntp3886
Rp3887
(dp3888
g51
I5
sg89
g107
sg88
F-0.6790506182295999
sg87
F4.595325109655993
sg85
g106
sbsI6
g0
(g81
g2
Ntp3889
Rp3890
(dp3891
g51
I6
sg89
g107
sg88
F-0.2224085140771245
sg87
F5.387495922597717
sg85
g106
sbsI7
g0
(g81
g2
Ntp3892
Rp3893
(dp3894
g51
I7
sg89
g107
sg88
F-0.1407197947054803
sg87
F6.115014180999054
sg85
g106
sbsI8
g0
(g81
g2
Ntp3895
Rp3896
(dp3897
g51
I8
sg89
g107
sg88
F-1.3206391292530903
sg87
F7.083763395444482
sg85
g106
sbssg78
F-2.5
sg77
I1
sg76
I290
sg75
I293
sg74
I1
sg73
I1
sg72
I4
sg35
(dp3898
I0
g0
(g37
g2
Ntp3899
Rp3900
(dp3901
g51
I0
sg41
(dp3902
g43
g0
(g44
g2
Ntp3903
Rp3904
(dp3905
g51
I1
sg50
F0.01
sg49
F0.0
sg48
F1.0
sbsg52
g0
(g44
g2
Ntp3906
Rp3907
(dp3908
g51
I1
sg50
F0.02
sg49
F0.0
sg48
F1.0
sbsg56
g0
(g44
g2
Ntp3909
Rp3910
(dp3911
g51
I1
sg50
F0.0
sg49
F0.0
sg48
F1.0
sbsg60
g0
(g44
g2
Ntp3912
Rp3913
(dp3914
g51
I1
sg50
F0.2
sg49
F0.0
sg48
F1.0
sbsg64
g0
(g44
g2
Ntp3915
Rp3916
(dp3917
g51
I1
sg50
F0.02
sg49
F0.0
sg48
F1.0
sbsg68
g0
(g44
g2
Ntp3918
Rp3919
(dp3920
g51
I1
sg50
F0.0
sg49
F0.0
sg48
F1.0
sbssbssg33
(dp3921
sg26
(lp3922
g28
aS'a0t0'
p3923
aS'a0t1'
p3924
aS'a0t2'
p3925
aS'a0t3'
p3926
asg20
(lp3927
g22
ag23
aS'a0'
p3928
aS'h0'
p3929
asbag0
(g16
g2
Ntp3930
Rp3931
(dp3932
g51
I298
sg143
g0
(g144
g2
Ntp3933
Rp3934
(dp3935
g210
(dp3936
g212
g156
sg213
g154
ssg192
(dp3937
g194
(lp3938
g198
ag201
asg202
(lp3939
g206
ag209
assg191
I5
sg190
I4
sg189
I0
sg187
g188
sg186
Nsg185
F30.0
sg184
F-30.0
sg183
I00
sg182
F1.0
sg180
(lp3940
g106
asg179
g16
sg178
I32
sg177
F0.95
sg176
F0.1
sg175
F0.1
sg174
F0.05
sg173
F0.05
sg172
F0.8
sg171
F0.5
sg170
F0.8
sg169
F0.5
sg168
F0.8
sg167
F0.1
sg166
F0.5
sg165
F0.0
sg164
F0.01
sg163
I01
sg162
F3.0
sg161
F1.0
sg160
F1.0
sg159
F0.5
sg158
g81
sg157
g120
sg155
g156
sg153
g154
sg152
I01
sg151
I01
sg150
I00
sg149
Nsg148
Nsbsg142
I5
sg141
I4
sg117
(dp3941
(I2
I5
tp3942
g0
(g120
g2
Ntp3943
Rp3944
(dp3945
g128
I4
sg127
I2
sg126
I5
sg125
F-1.1715428484239163
sg124
I01
sbs(I2
I6
tp3946
g0
(g120
g2
Ntp3947
Rp3948
(dp3949
g128
I5
sg127
I2
sg126
I6
sg125
F1.472482904752855
sg124
I01
sbs(I2
I7
tp3950
g0
(g120
g2
Ntp3951
Rp3952
(dp3953
g128
I6
sg127
I2
sg126
I7
sg125
F-0.5181251163116998
sg124
I00
sbs(I2
I8
tp3954
g0
(g120
g2
Ntp3955
Rp3956
(dp3957
g128
I7
sg127
I2
sg126
I8
sg125
F-1.6592382482202057
sg124
I01
sbssg79
(dp3958
I0
g0
(g81
g2
Ntp3959
Rp3960
(dp3961
g51
I0
sg89
g90
sg88
F0.0
sg87
F4.924273
sg85
g86
sbsI1
g0
(g81
g2
Ntp3962
Rp3963
(dp3964
g51
I1
sg89
g90
sg88
F0.0
sg87
F4.924273
sg85
g86
sbsI2
g0
(g81
g2
Ntp3965
Rp3966
(dp3967
g51
I2
sg89
g90
sg88
F0.0
sg87
F4.924273
sg85
g86
sbsI3
g0
(g81
g2
Ntp3968
Rp3969
(dp3970
g51
I3
sg89
g90
sg88
F0.0
sg87
F4.924273
sg85
g86
sbsI4
g0
(g81
g2
Ntp3971
Rp3972
(dp3973
g51
I4
sg89
g90
sg88
F0.0
sg87
F4.924273
sg85
g86
sbsI5
g0
(g81
g2
Ntp3974
Rp3975
(dp3976
g51
I5
sg89
g107
sg88
F-1.1334150696440308
sg87
F4.496493963267207
sg85
g106
sbsI6
g0
(g81
g2
Ntp3977
Rp3978
(dp3979
g51
I6
sg89
g107
sg88
F0.1807513646133504
sg87
F5.388787191308543
sg85
g106
sbsI7
g0
(g81
g2
Ntp3980
Rp3981
(dp3982
g51
I7
sg89
g107
sg88
F-0.6680137110050326
sg87
F6.243365313900993
sg85
g106
sbsI8
g0
(g81
g2
Ntp3983
Rp3984
(dp3985
g51
I8
sg89
g107
sg88
F-1.0228046540358329
sg87
F6.772225120220265
sg85
g106
sbssg78
F-3.0
sg77
I1
sg76
I251
sg75
I243
sg74
I1
sg73
I1
sg72
I4
sg35
(dp3986
I0
g0
(g37
g2
Ntp3987
Rp3988
(dp3989
g51
I0
sg41
(dp3990
g43
g0
(g44
g2
Ntp3991
Rp3992
(dp3993
g51
I1
sg50
F0.01
sg49
F0.0
sg48
F1.0
sbsg52
g0
(g44
g2
Ntp3994
Rp3995
(dp3996
g51
I1
sg50
F0.02
sg49
F0.0
sg48
F1.0
sbsg56
g0
(g44
g2
Ntp3997
Rp3998
(dp3999
g51
I1
sg50
F0.0
sg49
F0.0
sg48
F1.0
sbsg60
g0
(g44
g2
Ntp4000
Rp4001
(dp4002
g51
I1
sg50
F0.2
sg49
F0.0
sg48
F1.0
sbsg64
g0
(g44
g2
Ntp4003
Rp4004
(dp4005
g51
I1
sg50
F0.02
sg49
F0.0
sg48
F1.0
sbsg68
g0
(g44
g2
Ntp4006
Rp4007
(dp4008
g51
I1
sg50
F0.0
sg49
F0.0
sg48
F1.0
sbssbssg33
(dp4009
sg26
(lp4010
g28
aS'a0t0'
p4011
aS'a0t1'
p4012
aS'a0t2'
p4013
aS'a0t3'
p4014
asg20
(lp4015
g22
ag23
aS'a0'
p4016
aS'h0'
p4017
asbag0
(g16
g2
Ntp4018
Rp4019
(dp4020
g51
I385
sg143
g0
(g144
g2
Ntp4021
Rp4022
(dp4023
g210
(dp4024
g212
g156
sg213
g154
ssg192
(dp4025
g194
(lp4026
g198
ag201
asg202
(lp4027
g206
ag209
assg191
I5
sg190
I4
sg189
I0
sg187
g188
sg186
Nsg185
F30.0
sg184
F-30.0
sg183
I00
sg182
F1.0
sg180
(lp4028
g106
asg179
g16
sg178
I32
sg177
F0.95
sg176
F0.1
sg175
F0.1
sg174
F0.05
sg173
F0.05
sg172
F0.8
sg171
F0.5
sg170
F0.8
sg169
F0.5
sg168
F0.8
sg167
F0.1
sg166
F0.5
sg165
F0.0
sg164
F0.01
sg163
I01
sg162
F3.0
sg161
F1.0
sg160
F1.0
sg159
F0.5
sg158
g81
sg157
g120
sg155
g156
sg153
g154
sg152
I01
sg151
I01
sg150
I00
sg149
Nsg148
Nsbsg142
I5
sg141
I4
sg117
(dp4029
(I2
I5
tp4030
g0
(g120
g2
Ntp4031
Rp4032
(dp4033
g128
I4
sg127
I2
sg126
I5
sg125
F-0.46736552486854027
sg124
I00
sbs(I2
I6
tp4034
g0
(g120
g2
Ntp4035
Rp4036
(dp4037
g128
I5
sg127
I2
sg126
I6
sg125
F1.2294388626537567
sg124
I01
sbs(I2
I7
tp4038
g0
(g120
g2
Ntp4039
Rp4040
(dp4041
g128
I6
sg127
I2
sg126
I7
sg125
F0.6644503562765032
sg124
I00
sbs(I2
I8
tp4042
g0
(g120
g2
Ntp4043
Rp4044
(dp4045
g128
I7
sg127
I2
sg126
I8
sg125
F-1.1640018329146307
sg124
I01
sbssg79
(dp4046
I0
g0
(g81
g2
Ntp4047
Rp4048
(dp4049
g51
I0
sg89
g90
sg88
F0.0
sg87
F4.924273
sg85
g86
sbsI1
g0
(g81
g2
Ntp4050
Rp4051
(dp4052
g51
I1
sg89
g90
sg88
F0.0
sg87
F4.924273
sg85
g86
sbsI2
g0
(g81
g2
Ntp4053
Rp4054
(dp4055
g51
I2
sg89
g90
sg88
F0.0
sg87
F4.924273
sg85
g86
sbsI3
g0
(g81
g2
Ntp4056
Rp4057
(dp4058
g51
I3
sg89
g90
sg88
F0.0
sg87
F4.924273
sg85
g86
sbsI4
g0
(g81
g2
Ntp4059
Rp4060
(dp4061
g51
I4
sg89
g90
sg88
F0.0
sg87
F4.924273
sg85
g86
sbsI5
g0
(g81
g2
Ntp4062
Rp4063
(dp4064
g51
I5
sg89
g107
sg88
F-0.9581909314260244
sg87
F4.273999304251422
sg85
g106
sbsI6
g0
(g81
g2
Ntp4065
Rp4066
(dp4067
g51
I6
sg89
g107
sg88
F0.5491546594971974
sg87
F3.884910004722495
sg85
g106
sbsI7
g0
(g81
g2
Ntp4068
Rp4069
(dp4070
g51
I7
sg89
g107
sg88
F-0.004084306811763527
sg87
F6.804845948446039
sg85
g106
sbsI8
g0
(g81
g2
Ntp4071
Rp4072
(dp4073
g51
I8
sg89
g107
sg88
F-1.153725151480684
sg87
F7.368364172743545
sg85
g106
sbssg78
F-2.5
sg77
I1
sg76
I298
sg75
I375
sg74
I1
sg73
I1
sg72
I4
sg35
(dp4074
I0
g0
(g37
g2
Ntp4075
Rp4076
(dp4077
g51
I0
sg41
(dp4078
g43
g0
(g44
g2
Ntp4079
Rp4080
(dp4081
g51
I1
sg50
F0.01
sg49
F0.0
sg48
F1.0
sbsg52
g0
(g44
g2
Ntp4082
Rp4083
(dp4084
g51
I1
sg50
F0.02
sg49
F0.0
sg48
F1.0
sbsg56
g0
(g44
g2
Ntp4085
Rp4086
(dp4087
g51
I1
sg50
F0.0
sg49
F0.0
sg48
F1.0
sbsg60
g0
(g44
g2
Ntp4088
Rp4089
(dp4090
g51
I1
sg50
F0.2
sg49
F0.0
sg48
F1.0
sbsg64
g0
(g44
g2
Ntp4091
Rp4092
(dp4093
g51
I1
sg50
F0.02
sg49
F0.0
sg48
F1.0
sbsg68
g0
(g44
g2
Ntp4094
Rp4095
(dp4096
g51
I1
sg50
F0.0
sg49
F0.0
sg48
F1.0
sbssbssg33
(dp4097
sg26
(lp4098
g28
aS'a0t0'
p4099
aS'a0t1'
p4100
aS'a0t2'
p4101
aS'a0t3'
p4102
asg20
(lp4103
g22
ag23
aS'a0'
p4104
aS'h0'
p4105
asbag0
(g16
g2
Ntp4106
Rp4107
(dp4108
g51
I437
sg143
g0
(g144
g2
Ntp4109
Rp4110
(dp4111
g210
(dp4112
g212
g156
sg213
g154
ssg192
(dp4113
g194
(lp4114
g198
ag201
asg202
(lp4115
g206
ag209
assg191
I5
sg190
I4
sg189
I0
sg187
g188
sg186
Nsg185
F30.0
sg184
F-30.0
sg183
I00
sg182
F1.0
sg180
(lp4116
g106
asg179
g16
sg178
I32
sg177
F0.95
sg176
F0.1
sg175
F0.1
sg174
F0.05
sg173
F0.05
sg172
F0.8
sg171
F0.5
sg170
F0.8
sg169
F0.5
sg168
F0.8
sg167
F0.1
sg166
F0.5
sg165
F0.0
sg164
F0.01
sg163
I01
sg162
F3.0
sg161
F1.0
sg160
F1.0
sg159
F0.5
sg158
g81
sg157
g120
sg155
g156
sg153
g154
sg152
I01
sg151
I01
sg150
I00
sg149
Nsg148
Nsbsg142
I5
sg141
I4
sg117
(dp4117
(I2
I5
tp4118
g0
(g120
g2
Ntp4119
Rp4120
(dp4121
g128
I4
sg127
I2
sg126
I5
sg125
F0.024526731413003267
sg124
I01
sbs(I2
I6
tp4122
g0
(g120
g2
Ntp4123
Rp4124
(dp4125
g128
I5
sg127
I2
sg126
I6
sg125
F1.6128931001188334
sg124
I01
sbs(I2
I7
tp4126
g0
(g120
g2
Ntp4127
Rp4128
(dp4129
g128
I6
sg127
I2
sg126
I7
sg125
F-0.8499023373360829
sg124
I00
sbs(I2
I8
tp4130
g0
(g120
g2
Ntp4131
Rp4132
(dp4133
g128
I7
sg127
I2
sg126
I8
sg125
F-1.8344703618747453
sg124
I01
sbssg79
(dp4134
I0
g0
(g81
g2
Ntp4135
Rp4136
(dp4137
g51
I0
sg89
g90
sg88
F0.0
sg87
F4.924273
sg85
g86
sbsI1
g0
(g81
g2
Ntp4138
Rp4139
(dp4140
g51
I1
sg89
g90
sg88
F0.0
sg87
F4.924273
sg85
g86
sbsI2
g0
(g81
g2
Ntp4141
Rp4142
(dp4143
g51
I2
sg89
g90
sg88
F0.0
sg87
F4.924273
sg85
g86
sbsI3
g0
(g81
g2
Ntp4144
Rp4145
(dp4146
g51
I3
sg89
g90
sg88
F0.0
sg87
F4.924273
sg85
g86
sbsI4
g0
(g81
g2
Ntp4147
Rp4148
(dp4149
g51
I4
sg89
g90
sg88
F0.0
sg87
F4.924273
sg85
g86
sbsI5
g0
(g81
g2
Ntp4150
Rp4151
(dp4152
g51
I5
sg89
g107
sg88
F-1.6630901796598168
sg87
F5.103905698201074
sg85
g106
sbsI6
g0
(g81
g2
Ntp4153
Rp4154
(dp4155
g51
I6
sg89
g107
sg88
F0.005227904756065577
sg87
F4.227435856919853
sg85
g106
sbsI7
g0
(g81
g2
Ntp4156
Rp4157
(dp4158
g51
I7
sg89
g107
sg88
F-1.4154014786022637
sg87
F6.489476883973566
sg85
g106
sbsI8
g0
(g81
g2
Ntp4159
Rp4160
(dp4161
g51
I8
sg89
g107
sg88
F-0.5016428913997092
sg87
F7.929993046303606
sg85
g106
sbssg78
F-1.0
sg77
I1
sg76
I399
sg75
I382
sg74
I1
sg73
I1
sg72
I4
sg35
(dp4162
I0
g0
(g37
g2
Ntp4163
Rp4164
(dp4165
g51
I0
sg41
(dp4166
g43
g0
(g44
g2
Ntp4167
Rp4168
(dp4169
g51
I1
sg50
F0.01
sg49
F0.0
sg48
F1.0
sbsg52
g0
(g44
g2
Ntp4170
Rp4171
(dp4172
g51
I1
sg50
F0.02
sg49
F0.0
sg48
F1.0
sbsg56
g0
(g44
g2
Ntp4173
Rp4174
(dp4175
g51
I1
sg50
F0.0
sg49
F0.0
sg48
F1.0
sbsg60
g0
(g44
g2
Ntp4176
Rp4177
(dp4178
g51
I1
sg50
F0.2
sg49
F0.0
sg48
F1.0
sbsg64
g0
(g44
g2
Ntp4179
Rp4180
(dp4181
g51
I1
sg50
F0.02
sg49
F0.0
sg48
F1.0
sbsg68
g0
(g44
g2
Ntp4182
Rp4183
(dp4184
g51
I1
sg50
F0.0
sg49
F0.0
sg48
F1.0
sbssbssg33
(dp4185
sg26
(lp4186
g28
aS'a0t0'
p4187
aS'a0t1'
p4188
aS'a0t2'
p4189
aS'a0t3'
p4190
asg20
(lp4191
g22
ag23
aS'a0'
p4192
aS'h0'
p4193
asbag0
(g16
g2
Ntp4194
Rp4195
(dp4196
g51
I456
sg143
g0
(g144
g2
Ntp4197
Rp4198
(dp4199
g210
(dp4200
g212
g156
sg213
g154
ssg192
(dp4201
g194
(lp4202
g198
ag201
asg202
(lp4203
g206
ag209
assg191
I5
sg190
I4
sg189
I0
sg187
g188
sg186
Nsg185
F30.0
sg184
F-30.0
sg183
I00
sg182
F1.0
sg180
(lp4204
g106
asg179
g16
sg178
I32
sg177
F0.95
sg176
F0.1
sg175
F0.1
sg174
F0.05
sg173
F0.05
sg172
F0.8
sg171
F0.5
sg170
F0.8
sg169
F0.5
sg168
F0.8
sg167
F0.1
sg166
F0.5
sg165
F0.0
sg164
F0.01
sg163
I01
sg162
F3.0
sg161
F1.0
sg160
F1.0
sg159
F0.5
sg158
g81
sg157
g120
sg155
g156
sg153
g154
sg152
I01
sg151
I01
sg150
I00
sg149
Nsg148
Nsbsg142
I5
sg141
I4
sg117
(dp4205
(I2
I5
tp4206
g0
(g120
g2
Ntp4207
Rp4208
(dp4209
g128
I4
sg127
I2
sg126
I5
sg125
F-0.5718373154680905
sg124
I00
sbs(I2
I6
tp4210
g0
(g120
g2
Ntp4211
Rp4212
(dp4213
g128
I5
sg127
I2
sg126
I6
sg125
F1.2664249620227213
sg124
I01
sbs(I2
I7
tp4214
g0
(g120
g2
Ntp4215
Rp4216
(dp4217
g128
I6
sg127
I2
sg126
I7
sg125
F0.013734854851671363
sg124
I00
sbs(I2
I8
tp4218
g0
(g120
g2
Ntp4219
Rp4220
(dp4221
g128
I7
sg127
I2
sg126
I8
sg125
F-1.1640018329146307
sg124
I01
sbssg79
(dp4222
I0
g0
(g81
g2
Ntp4223
Rp4224
(dp4225
g51
I0
sg89
g90
sg88
F0.0
sg87
F4.924273
sg85
g86
sbsI1
g0
(g81
g2
Ntp4226
Rp4227
(dp4228
g51
I1
sg89
g90
sg88
F0.0
sg87
F4.924273
sg85
g86
sbsI2
g0
(g81
g2
Ntp4229
Rp4230
(dp4231
g51
I2
sg89
g90
sg88
F0.0
sg87
F4.924273
sg85
g86
sbsI3
g0
(g81
g2
Ntp4232
Rp4233
(dp4234
g51
I3
sg89
g90
sg88
F0.0
sg87
F4.924273
sg85
g86
sbsI4
g0
(g81
g2
Ntp4235
Rp4236
(dp4237
g51
I4
sg89
g90
sg88
F0.0
sg87
F4.924273
sg85
g86
sbsI5
g0
(g81
g2
Ntp4238
Rp4239
(dp4240
g51
I5
sg89
g107
sg88
F-0.026989546366814055
sg87
F4.787616987974218
sg85
g106
sbsI6
g0
(g81
g2
Ntp4241
Rp4242
(dp4243
g51
I6
sg89
g107
sg88
F0.3088922145520949
sg87
F3.884910004722495
sg85
g106
sbsI7
g0
(g81
g2
Ntp4244
Rp4245
(dp4246
g51
I7
sg89
g107
sg88
F-0.16526982394142364
sg87
F6.755745679034265
sg85
g106
sbsI8
g0
(g81
g2
Ntp4247
Rp4248
(dp4249
g51
I8
sg89
g107
sg88
F-1.1421931770333604
sg87
F7.409239982998443
sg85
g106
sbssg78
F-2.0
sg77
I1
sg76
I434
sg75
I385
sg74
I1
sg73
I1
sg72
I4
sg35
(dp4250
I0
g0
(g37
g2
Ntp4251
Rp4252
(dp4253
g51
I0
sg41
(dp4254
g43
g0
(g44
g2
Ntp4255
Rp4256
(dp4257
g51
I1
sg50
F0.01
sg49
F0.0
sg48
F1.0
sbsg52
g0
(g44
g2
Ntp4258
Rp4259
(dp4260
g51
I1
sg50
F0.02
sg49
F0.0
sg48
F1.0
sbsg56
g0
(g44
g2
Ntp4261
Rp4262
(dp4263
g51
I1
sg50
F0.0
sg49
F0.0
sg48
F1.0
sbsg60
g0
(g44
g2
Ntp4264
Rp4265
(dp4266
g51
I1
sg50
F0.2
sg49
F0.0
sg48
F1.0
sbsg64
g0
(g44
g2
Ntp4267
Rp4268
(dp4269
g51
I1
sg50
F0.02
sg49
F0.0
sg48
F1.0
sbsg68
g0
(g44
g2
Ntp4270
Rp4271
(dp4272
g51
I1
sg50
F0.0
sg49
F0.0
sg48
F1.0
sbssbssg33
(dp4273
sg26
(lp4274
g28
aS'a0t0'
p4275
aS'a0t1'
p4276
aS'a0t2'
p4277
aS'a0t3'
p4278
asg20
(lp4279
g22
ag23
aS'a0'
p4280
aS'h0'
p4281
asbag0
(g16
g2
Ntp4282
Rp4283
(dp4284
g51
I475
sg143
g0
(g144
g2
Ntp4285
Rp4286
(dp4287
g210
(dp4288
g212
g156
sg213
g154
ssg192
(dp4289
g194
(lp4290
g198
ag201
asg202
(lp4291
g206
ag209
assg191
I5
sg190
I4
sg189
I0
sg187
g188
sg186
Nsg185
F30.0
sg184
F-30.0
sg183
I00
sg182
F1.0
sg180
(lp4292
g106
asg179
g16
sg178
I32
sg177
F0.95
sg176
F0.1
sg175
F0.1
sg174
F0.05
sg173
F0.05
sg172
F0.8
sg171
F0.5
sg170
F0.8
sg169
F0.5
sg168
F0.8
sg167
F0.1
sg166
F0.5
sg165
F0.0
sg164
F0.01
sg163
I01
sg162
F3.0
sg161
F1.0
sg160
F1.0
sg159
F0.5
sg158
g81
sg157
g120
sg155
g156
sg153
g154
sg152
I01
sg151
I01
sg150
I00
sg149
Nsg148
Nsbsg142
I5
sg141
I4
sg117
(dp4293
(I2
I5
tp4294
g0
(g120
g2
Ntp4295
Rp4296
(dp4297
g128
I4
sg127
I2
sg126
I5
sg125
F-0.13083573776634605
sg124
I01
sbs(I2
I6
tp4298
g0
(g120
g2
Ntp4299
Rp4300
(dp4301
g128
I5
sg127
I2
sg126
I6
sg125
F1.0401936941231904
sg124
I01
sbs(I2
I7
tp4302
g0
(g120
g2
Ntp4303
Rp4304
(dp4305
g128
I6
sg127
I2
sg126
I7
sg125
F0.5314015818640966
sg124
I00
sbs(I2
I8
tp4306
g0
(g120
g2
Ntp4307
Rp4308
(dp4309
g128
I7
sg127
I2
sg126
I8
sg125
F-1.1973360998689857
sg124
I01
sbssg79
(dp4310
I0
g0
(g81
g2
Ntp4311
Rp4312
(dp4313
g51
I0
sg89
g90
sg88
F0.0
sg87
F4.924273
sg85
g86
sbsI1
g0
(g81
g2
Ntp4314
Rp4315
(dp4316
g51
I1
sg89
g90
sg88
F0.0
sg87
F4.924273
sg85
g86
sbsI2
g0
(g81
g2
Ntp4317
Rp4318
(dp4319
g51
I2
sg89
g90
sg88
F0.0
sg87
F4.924273
sg85
g86
sbsI3
g0
(g81
g2
Ntp4320
Rp4321
(dp4322
g51
I3
sg89
g90
sg88
F0.0
sg87
F4.924273
sg85
g86
sbsI4
g0
(g81
g2
Ntp4323
Rp4324
(dp4325
g51
I4
sg89
g90
sg88
F0.0
sg87
F4.924273
sg85
g86
sbsI5
g0
(g81
g2
Ntp4326
Rp4327
(dp4328
g51
I5
sg89
g107
sg88
F-1.2463495481270654
sg87
F4.883689724403617
sg85
g106
sbsI6
g0
(g81
g2
Ntp4329
Rp4330
(dp4331
g51
I6
sg89
g107
sg88
F-0.3931449449423223
sg87
F4.580661777325089
sg85
g106
sbsI7
g0
(g81
g2
Ntp4332
Rp4333
(dp4334
g51
I7
sg89
g107
sg88
F-1.727330470742877
sg87
F6.243365313900993
sg85
g106
sbsI8
g0
(g81
g2
Ntp4335
Rp4336
(dp4337
g51
I8
sg89
g107
sg88
F-1.7226424962617277
sg87
F6.950136946757896
sg85
g106
sbssg78
F-2.0
sg77
I1
sg76
I439
sg75
I399
sg74
I1
sg73
I1
sg72
I4
sg35
(dp4338
I0
g0
(g37
g2
Ntp4339
Rp4340
(dp4341
g51
I0
sg41
(dp4342
g43
g0
(g44
g2
Ntp4343
Rp4344
(dp4345
g51
I1
sg50
F0.01
sg49
F0.0
sg48
F1.0
sbsg52
g0
(g44
g2
Ntp4346
Rp4347
(dp4348
g51
I1
sg50
F0.02
sg49
F0.0
sg48
F1.0
sbsg56
g0
(g44
g2
Ntp4349
Rp4350
(dp4351
g51
I1
sg50
F0.0
sg49
F0.0
sg48
F1.0
sbsg60
g0
(g44
g2
Ntp4352
Rp4353
(dp4354
g51
I1
sg50
F0.2
sg49
F0.0
sg48
F1.0
sbsg64
g0
(g44
g2
Ntp4355
Rp4356
(dp4357
g51
I1
sg50
F0.02
sg49
F0.0
sg48
F1.0
sbsg68
g0
(g44
g2
Ntp4358
Rp4359
(dp4360
g51
I1
sg50
F0.0
sg49
F0.0
sg48
F1.0
sbssbssg33
(dp4361
sg26
(lp4362
g28
aS'a0t0'
p4363
aS'a0t1'
p4364
aS'a0t2'
p4365
aS'a0t3'
p4366
asg20
(lp4367
g22
ag23
aS'a0'
p4368
aS'h0'
p4369
asbag0
(g16
g2
Ntp4370
Rp4371
(dp4372
g51
I502
sg143
g0
(g144
g2
Ntp4373
Rp4374
(dp4375
g210
(dp4376
g212
g156
sg213
g154
ssg192
(dp4377
g194
(lp4378
g198
ag201
asg202
(lp4379
g206
ag209
assg191
I5
sg190
I4
sg189
I0
sg187
g188
sg186
Nsg185
F30.0
sg184
F-30.0
sg183
I00
sg182
F1.0
sg180
(lp4380
g106
asg179
g16
sg178
I32
sg177
F0.95
sg176
F0.1
sg175
F0.1
sg174
F0.05
sg173
F0.05
sg172
F0.8
sg171
F0.5
sg170
F0.8
sg169
F0.5
sg168
F0.8
sg167
F0.1
sg166
F0.5
sg165
F0.0
sg164
F0.01
sg163
I01
sg162
F3.0
sg161
F1.0
sg160
F1.0
sg159
F0.5
sg158
g81
sg157
g120
sg155
g156
sg153
g154
sg152
I01
sg151
I01
sg150
I00
sg149
Nsg148
Nsbsg142
I5
sg141
I4
sg117
(dp4381
(I2
I5
tp4382
g0
(g120
g2
Ntp4383
Rp4384
(dp4385
g128
I4
sg127
I2
sg126
I5
sg125
F0.4755778248792931
sg124
I01
sbs(I2
I6
tp4386
g0
(g120
g2
Ntp4387
Rp4388
(dp4389
g128
I5
sg127
I2
sg126
I6
sg125
F0.7933724953371034
sg124
I01
sbs(I2
I7
tp4390
g0
(g120
g2
Ntp4391
Rp4392
(dp4393
g128
I6
sg127
I2
sg126
I7
sg125
F-1.547483541765569
sg124
I00
sbs(I2
I8
tp4394
g0
(g120
g2
Ntp4395
Rp4396
(dp4397
g128
I7
sg127
I2
sg126
I8
sg125
F-0.9068473149268323
sg124
I01
sbssg79
(dp4398
I0
g0
(g81
g2
Ntp4399
Rp4400
(dp4401
g51
I0
sg89
g90
sg88
F0.0
sg87
F4.924273
sg85
g86
sbsI1
g0
(g81
g2
Ntp4402
Rp4403
(dp4404
g51
I1
sg89
g90
sg88
F0.0
sg87
F4.924273
sg85
g86
sbsI2
g0
(g81
g2
Ntp4405
Rp4406
(dp4407
g51
I2
sg89
g90
sg88
F0.0
sg87
F4.924273
sg85
g86
sbsI3
g0
(g81
g2
Ntp4408
Rp4409
(dp4410
g51
I3
sg89
g90
sg88
F0.0
sg87
F4.924273
sg85
g86
sbsI4
g0
(g81
g2
Ntp4411
Rp4412
(dp4413
g51
I4
sg89
g90
sg88
F0.0
sg87
F4.924273
sg85
g86
sbsI5
g0
(g81
g2
Ntp4414
Rp4415
(dp4416
g51
I5
sg89
g107
sg88
F-2.3169633873424695
sg87
F4.079682196090825
sg85
g106
sbsI6
g0
(g81
g2
Ntp4417
Rp4418
(dp4419
g51
I6
sg89
g107
sg88
F-0.10772081712017623
sg87
F3.6897054649624406
sg85
g106
sbsI7
g0
(g81
g2
Ntp4420
Rp4421
(dp4422
g51
I7
sg89
g107
sg88
F0.3173633819103571
sg87
F7.124100360963792
sg85
g106
sbsI8
g0
(g81
g2
Ntp4423
Rp4424
(dp4425
g51
I8
sg89
g107
sg88
F-1.1398366928500119
sg87
F8.880646027154299
sg85
g106
sbssg78
F-1.5
sg77
I1
sg76
I470
sg75
I488
sg74
I1
sg73
I1
sg72
I4
sg35
(dp4426
I0
g0
(g37
g2
Ntp4427
Rp4428
(dp4429
g51
I0
sg41
(dp4430
g43
g0
(g44
g2
Ntp4431
Rp4432
(dp4433
g51
I1
sg50
F0.01
sg49
F0.0
sg48
F1.0
sbsg52
g0
(g44
g2
Ntp4434
Rp4435
(dp4436
g51
I1
sg50
F0.02
sg49
F0.0
sg48
F1.0
sbsg56
g0
(g44
g2
Ntp4437
Rp4438
(dp4439
g51
I1
sg50
F0.0
sg49
F0.0
sg48
F1.0
sbsg60
g0
(g44
g2
Ntp4440
Rp4441
(dp4442
g51
I1
sg50
F0.2
sg49
F0.0
sg48
F1.0
sbsg64
g0
(g44
g2
Ntp4443
Rp4444
(dp4445
g51
I1
sg50
F0.02
sg49
F0.0
sg48
F1.0
sbsg68
g0
(g44
g2
Ntp4446
Rp4447
(dp4448
g51
I1
sg50
F0.0
sg49
F0.0
sg48
F1.0
sbssbssg33
(dp4449
sg26
(lp4450
g28
aS'a0t0'
p4451
aS'a0t1'
p4452
aS'a0t2'
p4453
aS'a0t3'
p4454
asg20
(lp4455
g22
ag23
aS'a0'
p4456
aS'h0'
p4457
asbag0
(g16
g2
Ntp4458
Rp4459
(dp4460
g51
I465
sg143
g0
(g144
g2
Ntp4461
Rp4462
(dp4463
g210
(dp4464
g212
g156
sg213
g154
ssg192
(dp4465
g194
(lp4466
g198
ag201
asg202
(lp4467
g206
ag209
assg191
I5
sg190
I4
sg189
I0
sg187
g188
sg186
Nsg185
F30.0
sg184
F-30.0
sg183
I00
sg182
F1.0
sg180
(lp4468
g106
asg179
g16
sg178
I32
sg177
F0.95
sg176
F0.1
sg175
F0.1
sg174
F0.05
sg173
F0.05
sg172
F0.8
sg171
F0.5
sg170
F0.8
sg169
F0.5
sg168
F0.8
sg167
F0.1
sg166
F0.5
sg165
F0.0
sg164
F0.01
sg163
I01
sg162
F3.0
sg161
F1.0
sg160
F1.0
sg159
F0.5
sg158
g81
sg157
g120
sg155
g156
sg153
g154
sg152
I01
sg151
I01
sg150
I00
sg149
Nsg148
Nsbsg142
I5
sg141
I4
sg117
(dp4469
g119
g0
(g120
g2
Ntp4470
Rp4471
(dp4472
g128
I4
sg127
I2
sg126
I5
sg125
F0.6505932323291698
sg124
I00
sbsg129
g0
(g120
g2
Ntp4473
Rp4474
(dp4475
g128
I5
sg127
I2
sg126
I6
sg125
F1.2664249620227213
sg124
I01
sbsg133
g0
(g120
g2
Ntp4476
Rp4477
(dp4478
g128
I6
sg127
I2
sg126
I7
sg125
F-0.29581321632671076
sg124
I00
sbsg137
g0
(g120
g2
Ntp4479
Rp4480
(dp4481
g128
I7
sg127
I2
sg126
I8
sg125
F-1.412517111083659
sg124
I01
sbssg79
(dp4482
I0
g0
(g81
g2
Ntp4483
Rp4484
(dp4485
g51
I0
sg89
g90
sg88
F0.0
sg87
F4.924273
sg85
g86
sbsI1
g0
(g81
g2
Ntp4486
Rp4487
(dp4488
g51
I1
sg89
g90
sg88
F0.0
sg87
F4.924273
sg85
g86
sbsI2
g0
(g81
g2
Ntp4489
Rp4490
(dp4491
g51
I2
sg89
g90
sg88
F0.0
sg87
F4.924273
sg85
g86
sbsI3
g0
(g81
g2
Ntp4492
Rp4493
(dp4494
g51
I3
sg89
g90
sg88
F0.0
sg87
F4.924273
sg85
g86
sbsI4
g0
(g81
g2
Ntp4495
Rp4496
(dp4497
g51
I4
sg89
g90
sg88
F0.0
sg87
F4.924273
sg85
g86
sbsI5
g0
(g81
g2
Ntp4498
Rp4499
(dp4500
g51
I5
sg89
g107
sg88
F-0.026989546366814055
sg87
F4.787616987974218
sg85
g106
sbsI6
g0
(g81
g2
Ntp4501
Rp4502
(dp4503
g51
I6
sg89
g107
sg88
F0.18227046264697036
sg87
F3.7391481755060467
sg85
g106
sbsI7
g0
(g81
g2
Ntp4504
Rp4505
(dp4506
g51
I7
sg89
g107
sg88
F-0.16526982394142364
sg87
F5.198121403631478
sg85
g106
sbsI8
g0
(g81
g2
Ntp4507
Rp4508
(dp4509
g51
I8
sg89
g107
sg88
F-0.34444283402230513
sg87
F7.3508952361620485
sg85
g106
sbssg78
F-4.0
sg77
I1
sg76
I450
sg75
I456
sg74
I1
sg73
I1
sg72
I4
sg35
(dp4510
I0
g0
(g37
g2
Ntp4511
Rp4512
(dp4513
g51
I0
sg41
(dp4514
g43
g0
(g44
g2
Ntp4515
Rp4516
(dp4517
g51
I1
sg50
F0.01
sg49
F0.0
sg48
F1.0
sbsg52
g0
(g44
g2
Ntp4518
Rp4519
(dp4520
g51
I1
sg50
F0.02
sg49
F0.0
sg48
F1.0
sbsg56
g0
(g44
g2
Ntp4521
Rp4522
(dp4523
g51
I1
sg50
F0.0
sg49
F0.0
sg48
F1.0
sbsg60
g0
(g44
g2
Ntp4524
Rp4525
(dp4526
g51
I1
sg50
F0.2
sg49
F0.0
sg48
F1.0
sbsg64
g0
(g44
g2
Ntp4527
Rp4528
(dp4529
g51
I1
sg50
F0.02
sg49
F0.0
sg48
F1.0
sbsg68
g0
(g44
g2
Ntp4530
Rp4531
(dp4532
g51
I1
sg50
F0.0
sg49
F0.0
sg48
F1.0
sbssbssg33
(dp4533
sg26
(lp4534
g28
ag29
ag30
ag31
ag32
asg20
(lp4535
g22
ag23
ag24
ag25
asbasbag0
(cneat.reporting
StdOutReporter
p4536
g2
Ntp4537
Rp4538
(dp4539
S'generation_start_time'
p4540
F1464560409.322173
sg7
I19
sbasbsS'species_fitness_func'
p4541
cneat.stagnation
species_mean_fitness
p4542
sS'species_fitness'
p4543
g197
sS'max_stagnation'
p4544
I10
sbsS'innovation_indexer'
p4545
g0
(cneat.indexer
InnovationIndexer
p4546
g2
Ntp4547
Rp4548
(dp4549
S'innovations'
p4550
(dp4551
(I3
I5
tp4552
I0
s(I3
I6
tp4553
I1
s(I3
I7
tp4554
I2
s(I3
I8
tp4555
I3
s(I2
I5
tp4556
I4
s(I2
I6
tp4557
I5
s(I2
I7
tp4558
I6
s(I2
I8
tp4559
I7
s(I1
I5
tp4560
I8
s(I1
I6
tp4561
I9
s(I1
I7
tp4562
I10
s(I1
I8
tp4563
I11
s(I4
I5
tp4564
I12
s(I4
I6
tp4565
I13
s(I4
I7
tp4566
I14
s(I4
I8
tp4567
I15
s(I0
I5
tp4568
I16
s(I0
I6
tp4569
I17
s(I0
I7
tp4570
I18
s(I0
I8
tp4571
I19
s(I0
I9
tp4572
I20
s(I9
I8
tp4573
I21
s(I4
I9
tp4574
I22
s(I9
I6
tp4575
I23
s(I6
I5
tp4576
I24
s(I3
I9
tp4577
I25
s(I9
I5
tp4578
I26
s(I5
I6
tp4579
I27
s(I2
I9
tp4580
I28
s(I1
I9
tp4581
I29
s(I9
I7
tp4582
I30
s(I6
I9
tp4583
I31
s(I8
I8
tp4584
I32
s(I6
I7
tp4585
I33
s(I5
I7
tp4586
I34
s(I8
I6
tp4587
I35
s(I6
I6
tp4588
I36
s(I5
I8
tp4589
I37
s(I7
I5
tp4590
I38
s(I5
I5
tp4591
I39
s(I8
I5
tp4592
I40
s(I7
I7
tp4593
I41
s(I6
I8
tp4594
I42
ssS'indexer'
p4595
g0
(cneat.indexer
Indexer
p4596
g2
Ntp4597
Rp4598
(dp4599
S'next_id'
p4600
I43
sbsbsS'genome_indexer'
p4601
g0
(g4596
g2
Ntp4602
Rp4603
(dp4604
g4600
I573
sbsg2762
g2765
sS'survival_threshold'
p4605
F0.2
sS'elitism'
p4606
I5
sbsg4545
g4548
sg4601
g4603
sS'species_indexer'
p4607
g0
(g4596
g2
Ntp4608
Rp4609
(dp4610
g4600
I2
sbsg143
g146
sS'statistics'
p4611
g2770
sg2762
g2765
sb.