ccopy_reg
_reconstructor
p0
(cneat.population
Population
p1
c__builtin__
object
p2
Ntp3
Rp4
(dp5
S'total_evaluations'
p6
I640
sS'generation'
p7
I19
sS'species'
p8
(lp9
g0
(cneat.species
Species
p10
g2
Ntp11
Rp12
(dp13
S'members'
p14
(lp15
g0
(ccellGenome
CellGenome
p16
g2
Ntp17
Rp18
(dp19
S'outputs'
p20
(lp21
S'apoptosis'
p22
aS'division'
p23
aS'a0'
p24
aS'h0'
p25
asS'inputs'
p26
(lp27
S'stress'
p28
aS'a0t0'
p29
aS'a0t1'
p30
aS'a0t2'
p31
aS'a0t3'
p32
asS'attribute_genes'
p33
(dp34
sS'morphogen_genes'
p35
(dp36
I0
g0
(cneat_custom.genes
MorphogenGene
p37
g2
Ntp38
Rp39
(dp40
S'components'
p41
(dp42
S'activator_diffusion'
p43
g0
(cneat_custom.genes
AttributeGene
p44
g2
Ntp45
Rp46
(dp47
S'max'
p48
F1.0
sS'min'
p49
F0.0
sS'value'
p50
F0.01
sS'ID'
p51
I1
sbsS'activator_decay'
p52
g0
(g44
g2
Ntp53
Rp54
(dp55
g48
F1.0
sg49
F0.0
sg50
F0.02
sg51
I1
sbsS'activator_production'
p56
g0
(g44
g2
Ntp57
Rp58
(dp59
g48
F1.0
sg49
F0.0
sg50
F0.0
sg51
I1
sbsS'inhibitor_diffusion'
p60
g0
(g44
g2
Ntp61
Rp62
(dp63
g48
F1.0
sg49
F0.0
sg50
F0.2
sg51
I1
sbsS'inhibitor_decay'
p64
g0
(g44
g2
Ntp65
Rp66
(dp67
g48
F1.0
sg49
F0.0
sg50
F0.02
sg51
I1
sbsS'inhibitor_production'
p68
g0
(g44
g2
Ntp69
Rp70
(dp71
g48
F1.0
sg49
F0.0
sg50
F0.0
sg51
I1
sbssg51
I0
sbssS'morphogen_thresholds'
p72
I4
sS'num_morphogens'
p73
I1
sS'cell_types'
p74
I1
sS'parent2_id'
p75
I463
sS'parent1_id'
p76
I463
sS'species_id'
p77
I1
sS'fitness'
p78
F-3.0
sS'node_genes'
p79
(dp80
I0
g0
(cneat.genes
NodeGene
p81
g2
Ntp82
Rp83
(dp84
S'activation_type'
p85
S'sigmoid'
p86
sS'response'
p87
F4.924273
sS'bias'
p88
F0.0
sS'type'
p89
S'INPUT'
p90
sg51
I0
sbsI1
g0
(g81
g2
Ntp91
Rp92
(dp93
g85
g86
sg87
F4.924273
sg88
F0.0
sg89
g90
sg51
I1
sbsI2
g0
(g81
g2
Ntp94
Rp95
(dp96
g85
g86
sg87
F4.924273
sg88
F0.0
sg89
g90
sg51
I2
sbsI3
g0
(g81
g2
Ntp97
Rp98
(dp99
g85
g86
sg87
F4.924273
sg88
F0.0
sg89
g90
sg51
I3
sbsI4
g0
(g81
g2
Ntp100
Rp101
(dp102
g85
g86
sg87
F4.924273
sg88
F0.0
sg89
g90
sg51
I4
sbsI5
g0
(g81
g2
Ntp103
Rp104
(dp105
g85
S'sigmoid'
p106
sg87
F3.245812900517733
sg88
F0.286105376384889
sg89
S'OUTPUT'
p107
sg51
I5
sbsI6
g0
(g81
g2
Ntp108
Rp109
(dp110
g85
g106
sg87
F2.778655650045682
sg88
F-0.17882787337350803
sg89
g107
sg51
I6
sbsI7
g0
(g81
g2
Ntp111
Rp112
(dp113
g85
g106
sg87
F4.54103384342227
sg88
F-0.192236660337454
sg89
g107
sg51
I7
sbsI8
g0
(g81
g2
Ntp114
Rp115
(dp116
g85
g106
sg87
F3.590587688763054
sg88
F-0.2704843158860311
sg89
g107
sg51
I8
sbssS'conn_genes'
p117
(dp118
(I3
I5
tp119
g0
(cneat.genes
ConnectionGene
p120
g2
Ntp121
Rp122
(dp123
S'enabled'
p124
I01
sS'weight'
p125
F-1.3205686606622702
sS'out_node_id'
p126
I5
sS'in_node_id'
p127
I3
sS'innovation_id'
p128
I12
sbs(I3
I6
tp129
g0
(g120
g2
Ntp130
Rp131
(dp132
g124
I01
sg125
F2.2768256054723404
sg126
I6
sg127
I3
sg128
I13
sbs(I3
I7
tp133
g0
(g120
g2
Ntp134
Rp135
(dp136
g124
I01
sg125
F0.48612539534981963
sg126
I7
sg127
I3
sg128
I14
sbs(I3
I8
tp137
g0
(g120
g2
Ntp138
Rp139
(dp140
g124
I01
sg125
F0.9679355615358027
sg126
I8
sg127
I3
sg128
I15
sbssS'num_outputs'
p141
I4
sS'num_inputs'
p142
I5
sS'config'
p143
g0
(cneat.config
Config
p144
g2
Ntp145
Rp146
(dp147
S'checkpoint_gen_interval'
p148
NsS'checkpoint_time_interval'
p149
NsS'save_best'
p150
I00
sS'report'
p151
I01
sS'collect_statistics'
p152
I01
sS'reproduction_type'
p153
cneat.reproduction
DefaultReproduction
p154
sS'stagnation_type'
p155
cneat.stagnation
DefaultStagnation
p156
sS'conn_gene_type'
p157
g120
sS'node_gene_type'
p158
g81
sS'weight_coefficient'
p159
F0.5
sS'disjoint_coefficient'
p160
F1.0
sS'excess_coefficient'
p161
F1.0
sS'compatibility_threshold'
p162
F3.0
sS'reset_on_extinction'
p163
I01
sS'prob_toggle_link'
p164
F0.01
sS'prob_mutate_activation'
p165
F0.0
sS'weight_mutation_power'
p166
F0.5
sS'prob_replace_weight'
p167
F0.1
sS'prob_mutate_weight'
p168
F0.8
sS'response_mutation_power'
p169
F0.5
sS'prob_mutate_response'
p170
F0.8
sS'bias_mutation_power'
p171
F0.5
sS'prob_mutate_bias'
p172
F0.8
sS'prob_delete_node'
p173
F0.05
sS'prob_delete_conn'
p174
F0.05
sS'prob_add_node'
p175
F0.1
sS'prob_add_conn'
p176
F0.1
sS'max_fitness_threshold'
p177
F0.95
sS'pop_size'
p178
I32
sS'genotype'
p179
g16
sS'activation_functions'
p180
(lp181
g106
asS'weight_stdev'
p182
F1.0
sS'feedforward'
p183
I00
sS'min_weight'
p184
F-30.0
sS'max_weight'
p185
F30.0
sS'connection_fraction'
p186
NsS'initial_connection'
p187
S'fs_neat'
p188
sS'hidden_nodes'
p189
I0
sS'output_nodes'
p190
I4
sS'input_nodes'
p191
I5
sS'type_config'
p192
(dp193
S'DefaultStagnation'
p194
(lp195
(S'species_fitness_func'
p196
S'mean'
p197
tp198
a(S'max_stagnation'
p199
S'10'
p200
tp201
asS'DefaultReproduction'
p202
(lp203
(S'elitism'
p204
S'5'
p205
tp206
a(S'survival_threshold'
p207
S'0.2'
p208
tp209
assS'registry'
p210
(dp211
S'DefaultStagnation'
p212
g156
sS'DefaultReproduction'
p213
g154
ssbsg51
I468
sbag0
(g16
g2
Ntp214
Rp215
(dp216
g20
(lp217
g22
ag23
aS'a0'
p218
aS'h0'
p219
asg26
(lp220
g28
aS'a0t0'
p221
aS'a0t1'
p222
aS'a0t2'
p223
aS'a0t3'
p224
asg33
(dp225
sg35
(dp226
I0
g0
(g37
g2
Ntp227
Rp228
(dp229
g41
(dp230
g43
g0
(g44
g2
Ntp231
Rp232
(dp233
g48
F1.0
sg49
F0.0
sg50
F0.01
sg51
I1
sbsg52
g0
(g44
g2
Ntp234
Rp235
(dp236
g48
F1.0
sg49
F0.0
sg50
F0.02
sg51
I1
sbsg56
g0
(g44
g2
Ntp237
Rp238
(dp239
g48
F1.0
sg49
F0.0
sg50
F0.0
sg51
I1
sbsg60
g0
(g44
g2
Ntp240
Rp241
(dp242
g48
F1.0
sg49
F0.0
sg50
F0.2
sg51
I1
sbsg64
g0
(g44
g2
Ntp243
Rp244
(dp245
g48
F1.0
sg49
F0.0
sg50
F0.02
sg51
I1
sbsg68
g0
(g44
g2
Ntp246
Rp247
(dp248
g48
F1.0
sg49
F0.0
sg50
F0.0
sg51
I1
sbssg51
I0
sbssg72
I4
sg73
I1
sg74
I1
sg75
I469
sg76
I356
sg77
I1
sg78
F-4.0
sg79
(dp249
I0
g0
(g81
g2
Ntp250
Rp251
(dp252
g85
g86
sg87
F4.924273
sg88
F0.0
sg89
g90
sg51
I0
sbsI1
g0
(g81
g2
Ntp253
Rp254
(dp255
g85
g86
sg87
F4.924273
sg88
F0.0
sg89
g90
sg51
I1
sbsI2
g0
(g81
g2
Ntp256
Rp257
(dp258
g85
g86
sg87
F4.924273
sg88
F0.0
sg89
g90
sg51
I2
sbsI3
g0
(g81
g2
Ntp259
Rp260
(dp261
g85
g86
sg87
F4.924273
sg88
F0.0
sg89
g90
sg51
I3
sbsI4
g0
(g81
g2
Ntp262
Rp263
(dp264
g85
g86
sg87
F4.924273
sg88
F0.0
sg89
g90
sg51
I4
sbsI5
g0
(g81
g2
Ntp265
Rp266
(dp267
g85
g106
sg87
F3.839379357667004
sg88
F0.3366163456584379
sg89
g107
sg51
I5
sbsI6
g0
(g81
g2
Ntp268
Rp269
(dp270
g85
g106
sg87
F2.9322620488853666
sg88
F-0.2745367697528084
sg89
g107
sg51
I6
sbsI7
g0
(g81
g2
Ntp271
Rp272
(dp273
g85
g106
sg87
F3.3115115698150315
sg88
F-0.20951237111676554
sg89
g107
sg51
I7
sbsI8
g0
(g81
g2
Ntp274
Rp275
(dp276
g85
g106
sg87
F2.6833754799841945
sg88
F1.0123220181841848
sg89
g107
sg51
I8
sbssg117
(dp277
(I3
I5
tp278
g0
(g120
g2
Ntp279
Rp280
(dp281
g124
I01
sg125
F-1.2832425057575692
sg126
I5
sg127
I3
sg128
I12
sbs(I3
I6
tp282
g0
(g120
g2
Ntp283
Rp284
(dp285
g124
I01
sg125
F1.9609868128695402
sg126
I6
sg127
I3
sg128
I13
sbs(I3
I7
tp286
g0
(g120
g2
Ntp287
Rp288
(dp289
g124
I01
sg125
F1.3295193610286968
sg126
I7
sg127
I3
sg128
I14
sbs(I3
I8
tp290
g0
(g120
g2
Ntp291
Rp292
(dp293
g124
I01
sg125
F0.42675991802624935
sg126
I8
sg127
I3
sg128
I15
sbssg141
I4
sg142
I5
sg143
g146
sg51
I515
sbag0
(g16
g2
Ntp294
Rp295
(dp296
g20
(lp297
g22
ag23
aS'a0'
p298
aS'h0'
p299
asg26
(lp300
g28
aS'a0t0'
p301
aS'a0t1'
p302
aS'a0t2'
p303
aS'a0t3'
p304
asg33
(dp305
sg35
(dp306
I0
g0
(g37
g2
Ntp307
Rp308
(dp309
g41
(dp310
g43
g0
(g44
g2
Ntp311
Rp312
(dp313
g48
F1.0
sg49
F0.0
sg50
F0.01
sg51
I1
sbsg52
g0
(g44
g2
Ntp314
Rp315
(dp316
g48
F1.0
sg49
F0.0
sg50
F0.02
sg51
I1
sbsg56
g0
(g44
g2
Ntp317
Rp318
(dp319
g48
F1.0
sg49
F0.0
sg50
F0.0
sg51
I1
sbsg60
g0
(g44
g2
Ntp320
Rp321
(dp322
g48
F1.0
sg49
F0.0
sg50
F0.2
sg51
I1
sbsg64
g0
(g44
g2
Ntp323
Rp324
(dp325
g48
F1.0
sg49
F0.0
sg50
F0.02
sg51
I1
sbsg68
g0
(g44
g2
Ntp326
Rp327
(dp328
g48
F1.0
sg49
F0.0
sg50
F0.0
sg51
I1
sbssg51
I0
sbssg72
I4
sg73
I1
sg74
I1
sg75
I497
sg76
I468
sg77
I1
sg78
F-4.0
sg79
(dp329
I0
g0
(g81
g2
Ntp330
Rp331
(dp332
g85
g86
sg87
F4.924273
sg88
F0.0
sg89
g90
sg51
I0
sbsI1
g0
(g81
g2
Ntp333
Rp334
(dp335
g85
g86
sg87
F4.924273
sg88
F0.0
sg89
g90
sg51
I1
sbsI2
g0
(g81
g2
Ntp336
Rp337
(dp338
g85
g86
sg87
F4.924273
sg88
F0.0
sg89
g90
sg51
I2
sbsI3
g0
(g81
g2
Ntp339
Rp340
(dp341
g85
g86
sg87
F4.924273
sg88
F0.0
sg89
g90
sg51
I3
sbsI4
g0
(g81
g2
Ntp342
Rp343
(dp344
g85
g86
sg87
F4.924273
sg88
F0.0
sg89
g90
sg51
I4
sbsI5
g0
(g81
g2
Ntp345
Rp346
(dp347
g85
g106
sg87
F5.5403889091496215
sg88
F-0.4684987555700647
sg89
g107
sg51
I5
sbsI6
g0
(g81
g2
Ntp348
Rp349
(dp350
g85
g106
sg87
F3.525812822173502
sg88
F0.257905473118425
sg89
g107
sg51
I6
sbsI7
g0
(g81
g2
Ntp351
Rp352
(dp353
g85
g106
sg87
F4.54103384342227
sg88
F-0.44623639970162626
sg89
g107
sg51
I7
sbsI8
g0
(g81
g2
Ntp354
Rp355
(dp356
g85
g106
sg87
F3.326426490623846
sg88
F0.29659095565011756
sg89
g107
sg51
I8
sbssg117
(dp357
(I3
I5
tp358
g0
(g120
g2
Ntp359
Rp360
(dp361
g124
I01
sg125
F-0.2337327322422189
sg126
I5
sg127
I3
sg128
I12
sbs(I3
I6
tp362
g0
(g120
g2
Ntp363
Rp364
(dp365
g124
I01
sg125
F0.8597548608680968
sg126
I6
sg127
I3
sg128
I13
sbs(I3
I7
tp366
g0
(g120
g2
Ntp367
Rp368
(dp369
g124
I01
sg125
F0.48612539534981963
sg126
I7
sg127
I3
sg128
I14
sbs(I3
I8
tp370
g0
(g120
g2
Ntp371
Rp372
(dp373
g124
I01
sg125
F1.2111137543201482
sg126
I8
sg127
I3
sg128
I15
sbs(I5
I5
tp374
g0
(g120
g2
Ntp375
Rp376
(dp377
g124
I00
sg125
F-1.9146918839600002
sg126
I5
sg127
I5
sg128
I44
sbssg141
I4
sg142
I5
sg143
g146
sg51
I539
sbag0
(g16
g2
Ntp378
Rp379
(dp380
g20
(lp381
g22
ag23
aS'a0'
p382
aS'h0'
p383
asg26
(lp384
g28
aS'a0t0'
p385
aS'a0t1'
p386
aS'a0t2'
p387
aS'a0t3'
p388
asg33
(dp389
sg35
(dp390
I0
g0
(g37
g2
Ntp391
Rp392
(dp393
g41
(dp394
g43
g0
(g44
g2
Ntp395
Rp396
(dp397
g48
F1.0
sg49
F0.0
sg50
F0.01
sg51
I1
sbsg52
g0
(g44
g2
Ntp398
Rp399
(dp400
g48
F1.0
sg49
F0.0
sg50
F0.02
sg51
I1
sbsg56
g0
(g44
g2
Ntp401
Rp402
(dp403
g48
F1.0
sg49
F0.0
sg50
F0.0
sg51
I1
sbsg60
g0
(g44
g2
Ntp404
Rp405
(dp406
g48
F1.0
sg49
F0.0
sg50
F0.2
sg51
I1
sbsg64
g0
(g44
g2
Ntp407
Rp408
(dp409
g48
F1.0
sg49
F0.0
sg50
F0.02
sg51
I1
sbsg68
g0
(g44
g2
Ntp410
Rp411
(dp412
g48
F1.0
sg49
F0.0
sg50
F0.0
sg51
I1
sbssg51
I0
sbssg72
I4
sg73
I1
sg74
I1
sg75
I398
sg76
I356
sg77
I1
sg78
F-4.5
sg79
(dp413
I0
g0
(g81
g2
Ntp414
Rp415
(dp416
g85
g86
sg87
F4.924273
sg88
F0.0
sg89
g90
sg51
I0
sbsI1
g0
(g81
g2
Ntp417
Rp418
(dp419
g85
g86
sg87
F4.924273
sg88
F0.0
sg89
g90
sg51
I1
sbsI2
g0
(g81
g2
Ntp420
Rp421
(dp422
g85
g86
sg87
F4.924273
sg88
F0.0
sg89
g90
sg51
I2
sbsI3
g0
(g81
g2
Ntp423
Rp424
(dp425
g85
g86
sg87
F4.924273
sg88
F0.0
sg89
g90
sg51
I3
sbsI4
g0
(g81
g2
Ntp426
Rp427
(dp428
g85
g86
sg87
F4.924273
sg88
F0.0
sg89
g90
sg51
I4
sbsI5
g0
(g81
g2
Ntp429
Rp430
(dp431
g85
g106
sg87
F4.7485030998134645
sg88
F0.5334524916289701
sg89
g107
sg51
I5
sbsI6
g0
(g81
g2
Ntp432
Rp433
(dp434
g85
g106
sg87
F2.25058549499217
sg88
F0.5800505860202098
sg89
g107
sg51
I6
sbsI7
g0
(g81
g2
Ntp435
Rp436
(dp437
g85
g106
sg87
F5.6740218537884815
sg88
F-0.0955944271794431
sg89
g107
sg51
I7
sbsI8
g0
(g81
g2
Ntp438
Rp439
(dp440
g85
g106
sg87
F5.480781836079027
sg88
F0.7458962515614389
sg89
g107
sg51
I8
sbssg117
(dp441
(I3
I5
tp442
g0
(g120
g2
Ntp443
Rp444
(dp445
g124
I01
sg125
F-0.944909288602074
sg126
I5
sg127
I3
sg128
I12
sbs(I3
I6
tp446
g0
(g120
g2
Ntp447
Rp448
(dp449
g124
I01
sg125
F2.508465802637191
sg126
I6
sg127
I3
sg128
I13
sbs(I3
I7
tp450
g0
(g120
g2
Ntp451
Rp452
(dp453
g124
I01
sg125
F0.0014064574581892624
sg126
I7
sg127
I3
sg128
I14
sbs(I3
I8
tp454
g0
(g120
g2
Ntp455
Rp456
(dp457
g124
I01
sg125
F1.816869819029867
sg126
I8
sg127
I3
sg128
I15
sbssg141
I4
sg142
I5
sg143
g146
sg51
I508
sbag0
(g16
g2
Ntp458
Rp459
(dp460
g20
(lp461
g22
ag23
aS'a0'
p462
aS'h0'
p463
asg26
(lp464
g28
aS'a0t0'
p465
aS'a0t1'
p466
aS'a0t2'
p467
aS'a0t3'
p468
asg33
(dp469
sg35
(dp470
I0
g0
(g37
g2
Ntp471
Rp472
(dp473
g41
(dp474
g43
g0
(g44
g2
Ntp475
Rp476
(dp477
g48
F1.0
sg49
F0.0
sg50
F0.01
sg51
I1
sbsg52
g0
(g44
g2
Ntp478
Rp479
(dp480
g48
F1.0
sg49
F0.0
sg50
F0.02
sg51
I1
sbsg56
g0
(g44
g2
Ntp481
Rp482
(dp483
g48
F1.0
sg49
F0.0
sg50
F0.0
sg51
I1
sbsg60
g0
(g44
g2
Ntp484
Rp485
(dp486
g48
F1.0
sg49
F0.0
sg50
F0.2
sg51
I1
sbsg64
g0
(g44
g2
Ntp487
Rp488
(dp489
g48
F1.0
sg49
F0.0
sg50
F0.02
sg51
I1
sbsg68
g0
(g44
g2
Ntp490
Rp491
(dp492
g48
F1.0
sg49
F0.0
sg50
F0.0
sg51
I1
sbssg51
I0
sbssg72
I4
sg73
I1
sg74
I1
sg75
I356
sg76
I376
sg77
I1
sg78
F-4.5
sg79
(dp493
I0
g0
(g81
g2
Ntp494
Rp495
(dp496
g85
g86
sg87
F4.924273
sg88
F0.0
sg89
g90
sg51
I0
sbsI1
g0
(g81
g2
Ntp497
Rp498
(dp499
g85
g86
sg87
F4.924273
sg88
F0.0
sg89
g90
sg51
I1
sbsI2
g0
(g81
g2
Ntp500
Rp501
(dp502
g85
g86
sg87
F4.924273
sg88
F0.0
sg89
g90
sg51
I2
sbsI3
g0
(g81
g2
Ntp503
Rp504
(dp505
g85
g86
sg87
F4.924273
sg88
F0.0
sg89
g90
sg51
I3
sbsI4
g0
(g81
g2
Ntp506
Rp507
(dp508
g85
g86
sg87
F4.924273
sg88
F0.0
sg89
g90
sg51
I4
sbsI5
g0
(g81
g2
Ntp509
Rp510
(dp511
g85
g106
sg87
F3.4275335230087203
sg88
F0.5334524916289701
sg89
g107
sg51
I5
sbsI6
g0
(g81
g2
Ntp512
Rp513
(dp514
g85
g106
sg87
F2.8042410818578656
sg88
F-0.5465548840994137
sg89
g107
sg51
I6
sbsI7
g0
(g81
g2
Ntp515
Rp516
(dp517
g85
g106
sg87
F5.095188074398712
sg88
F-0.192236660337454
sg89
g107
sg51
I7
sbsI8
g0
(g81
g2
Ntp518
Rp519
(dp520
g85
g106
sg87
F4.1443719411688456
sg88
F-0.6697435061234163
sg89
g107
sg51
I8
sbssg117
(dp521
(I3
I5
tp522
g0
(g120
g2
Ntp523
Rp524
(dp525
g124
I01
sg125
F-0.944909288602074
sg126
I5
sg127
I3
sg128
I12
sbs(I3
I6
tp526
g0
(g120
g2
Ntp527
Rp528
(dp529
g124
I01
sg125
F1.3191864138275922
sg126
I6
sg127
I3
sg128
I13
sbs(I3
I7
tp530
g0
(g120
g2
Ntp531
Rp532
(dp533
g124
I01
sg125
F0.5529041803602641
sg126
I7
sg127
I3
sg128
I14
sbs(I3
I8
tp534
g0
(g120
g2
Ntp535
Rp536
(dp537
g124
I01
sg125
F0.5507246472520055
sg126
I8
sg127
I3
sg128
I15
sbssg141
I4
sg142
I5
sg143
g146
sg51
I443
sbag0
(g16
g2
Ntp538
Rp539
(dp540
g20
(lp541
g22
ag23
aS'a0'
p542
aS'h0'
p543
asg26
(lp544
g28
aS'a0t0'
p545
aS'a0t1'
p546
aS'a0t2'
p547
aS'a0t3'
p548
asg33
(dp549
sg35
(dp550
I0
g0
(g37
g2
Ntp551
Rp552
(dp553
g41
(dp554
g43
g0
(g44
g2
Ntp555
Rp556
(dp557
g48
F1.0
sg49
F0.0
sg50
F0.01
sg51
I1
sbsg52
g0
(g44
g2
Ntp558
Rp559
(dp560
g48
F1.0
sg49
F0.0
sg50
F0.02
sg51
I1
sbsg56
g0
(g44
g2
Ntp561
Rp562
(dp563
g48
F1.0
sg49
F0.0
sg50
F0.0
sg51
I1
sbsg60
g0
(g44
g2
Ntp564
Rp565
(dp566
g48
F1.0
sg49
F0.0
sg50
F0.2
sg51
I1
sbsg64
g0
(g44
g2
Ntp567
Rp568
(dp569
g48
F1.0
sg49
F0.0
sg50
F0.02
sg51
I1
sbsg68
g0
(g44
g2
Ntp570
Rp571
(dp572
g48
F1.0
sg49
F0.0
sg50
F0.0
sg51
I1
sbssg51
I0
sbssg72
I4
sg73
I1
sg74
I1
sg75
I468
sg76
I539
sg77
I1
sg78
Nsg79
(dp573
I0
g0
(g81
g2
Ntp574
Rp575
(dp576
g85
g86
sg87
F4.924273
sg88
F0.0
sg89
g90
sg51
I0
sbsI1
g0
(g81
g2
Ntp577
Rp578
(dp579
g85
g86
sg87
F4.924273
sg88
F0.0
sg89
g90
sg51
I1
sbsI2
g0
(g81
g2
Ntp580
Rp581
(dp582
g85
g86
sg87
F4.924273
sg88
F0.0
sg89
g90
sg51
I2
sbsI3
g0
(g81
g2
Ntp583
Rp584
(dp585
g85
g86
sg87
F4.924273
sg88
F0.0
sg89
g90
sg51
I3
sbsI4
g0
(g81
g2
Ntp586
Rp587
(dp588
g85
g86
sg87
F4.924273
sg88
F0.0
sg89
g90
sg51
I4
sbsI5
g0
(g81
g2
Ntp589
Rp590
(dp591
g85
g106
sg87
F3.245812900517733
sg88
F-0.4684987555700647
sg89
g107
sg51
I5
sbsI6
g0
(g81
g2
Ntp592
Rp593
(dp594
g85
g106
sg87
F3.4062794922718136
sg88
F0.42317508681791793
sg89
g107
sg51
I6
sbsI7
g0
(g81
g2
Ntp595
Rp596
(dp597
g85
g106
sg87
F5.217101092390955
sg88
F0.2584604149103667
sg89
g107
sg51
I7
sbsI8
g0
(g81
g2
Ntp598
Rp599
(dp600
g85
g106
sg87
F3.590587688763054
sg88
F-0.42669595114176834
sg89
g107
sg51
I8
sbssg117
(dp601
(I3
I5
tp602
g0
(g120
g2
Ntp603
Rp604
(dp605
g124
I01
sg125
F0.2877473564690357
sg126
I5
sg127
I3
sg128
I12
sbs(I3
I6
tp606
g0
(g120
g2
Ntp607
Rp608
(dp609
g124
I01
sg125
F2.7957092829957304
sg126
I6
sg127
I3
sg128
I13
sbs(I3
I7
tp610
g0
(g120
g2
Ntp611
Rp612
(dp613
g124
I01
sg125
F-0.01969639032537257
sg126
I7
sg127
I3
sg128
I14
sbs(I3
I8
tp614
g0
(g120
g2
Ntp615
Rp616
(dp617
g124
I01
sg125
F1.2111137543201482
sg126
I8
sg127
I3
sg128
I15
sbs(I2
I6
tp618
g0
(g120
g2
Ntp619
Rp620
(dp621
g124
I00
sg125
F-3.287036265651749
sg126
I6
sg127
I2
sg128
I17
sbssg141
I4
sg142
I5
sg143
g146
sg51
I546
sbag0
(g16
g2
Ntp622
Rp623
(dp624
g20
(lp625
g22
ag23
aS'a0'
p626
aS'h0'
p627
asg26
(lp628
g28
aS'a0t0'
p629
aS'a0t1'
p630
aS'a0t2'
p631
aS'a0t3'
p632
asg33
(dp633
sg35
(dp634
I0
g0
(g37
g2
Ntp635
Rp636
(dp637
g41
(dp638
g43
g0
(g44
g2
Ntp639
Rp640
(dp641
g48
F1.0
sg49
F0.0
sg50
F0.01
sg51
I1
sbsg52
g0
(g44
g2
Ntp642
Rp643
(dp644
g48
F1.0
sg49
F0.0
sg50
F0.02
sg51
I1
sbsg56
g0
(g44
g2
Ntp645
Rp646
(dp647
g48
F1.0
sg49
F0.0
sg50
F0.0
sg51
I1
sbsg60
g0
(g44
g2
Ntp648
Rp649
(dp650
g48
F1.0
sg49
F0.0
sg50
F0.2
sg51
I1
sbsg64
g0
(g44
g2
Ntp651
Rp652
(dp653
g48
F1.0
sg49
F0.0
sg50
F0.02
sg51
I1
sbsg68
g0
(g44
g2
Ntp654
Rp655
(dp656
g48
F1.0
sg49
F0.0
sg50
F0.0
sg51
I1
sbssg51
I0
sbssg72
I4
sg73
I1
sg74
I1
sg75
I539
sg76
I536
sg77
I1
sg78
Nsg79
(dp657
I0
g0
(g81
g2
Ntp658
Rp659
(dp660
g85
g86
sg87
F4.924273
sg88
F0.0
sg89
g90
sg51
I0
sbsI1
g0
(g81
g2
Ntp661
Rp662
(dp663
g85
g86
sg87
F4.924273
sg88
F0.0
sg89
g90
sg51
I1
sbsI2
g0
(g81
g2
Ntp664
Rp665
(dp666
g85
g86
sg87
F4.924273
sg88
F0.0
sg89
g90
sg51
I2
sbsI3
g0
(g81
g2
Ntp667
Rp668
(dp669
g85
g86
sg87
F4.924273
sg88
F0.0
sg89
g90
sg51
I3
sbsI4
g0
(g81
g2
Ntp670
Rp671
(dp672
g85
g86
sg87
F4.924273
sg88
F0.0
sg89
g90
sg51
I4
sbsI5
g0
(g81
g2
Ntp673
Rp674
(dp675
g85
g106
sg87
F5.275805052382909
sg88
F0.1385982396448081
sg89
g107
sg51
I5
sbsI6
g0
(g81
g2
Ntp676
Rp677
(dp678
g85
g106
sg87
F3.317230751628517
sg88
F0.5359797474354882
sg89
g107
sg51
I6
sbsI7
g0
(g81
g2
Ntp679
Rp680
(dp681
g85
g106
sg87
F3.604639182551413
sg88
F0.46671445865686145
sg89
g107
sg51
I7
sbsI8
g0
(g81
g2
Ntp682
Rp683
(dp684
g85
g106
sg87
F4.0500995859942
sg88
F-1.0493652265222082
sg89
g107
sg51
I8
sbssg117
(dp685
(I3
I5
tp686
g0
(g120
g2
Ntp687
Rp688
(dp689
g124
I01
sg125
F0.061197315904913785
sg126
I5
sg127
I3
sg128
I12
sbs(I3
I6
tp690
g0
(g120
g2
Ntp691
Rp692
(dp693
g124
I00
sg125
F0.086148908941033
sg126
I6
sg127
I3
sg128
I13
sbs(I3
I7
tp694
g0
(g120
g2
Ntp695
Rp696
(dp697
g124
I01
sg125
F0.43372320447005147
sg126
I7
sg127
I3
sg128
I14
sbs(I3
I8
tp698
g0
(g120
g2
Ntp699
Rp700
(dp701
g124
I01
sg125
F3.430759643028658
sg126
I8
sg127
I3
sg128
I15
sbs(I5
I5
tp702
g0
(g120
g2
Ntp703
Rp704
(dp705
g124
I00
sg125
F-1.1152708836855263
sg126
I5
sg127
I5
sg128
I44
sbssg141
I4
sg142
I5
sg143
g146
sg51
I547
sbag0
(g16
g2
Ntp706
Rp707
(dp708
g20
(lp709
g22
ag23
aS'a0'
p710
aS'h0'
p711
asg26
(lp712
g28
aS'a0t0'
p713
aS'a0t1'
p714
aS'a0t2'
p715
aS'a0t3'
p716
asg33
(dp717
sg35
(dp718
I0
g0
(g37
g2
Ntp719
Rp720
(dp721
g41
(dp722
g43
g0
(g44
g2
Ntp723
Rp724
(dp725
g48
F1.0
sg49
F0.0
sg50
F0.01
sg51
I1
sbsg52
g0
(g44
g2
Ntp726
Rp727
(dp728
g48
F1.0
sg49
F0.0
sg50
F0.02
sg51
I1
sbsg56
g0
(g44
g2
Ntp729
Rp730
(dp731
g48
F1.0
sg49
F0.0
sg50
F0.0
sg51
I1
sbsg60
g0
(g44
g2
Ntp732
Rp733
(dp734
g48
F1.0
sg49
F0.0
sg50
F0.2
sg51
I1
sbsg64
g0
(g44
g2
Ntp735
Rp736
(dp737
g48
F1.0
sg49
F0.0
sg50
F0.02
sg51
I1
sbsg68
g0
(g44
g2
Ntp738
Rp739
(dp740
g48
F1.0
sg49
F0.0
sg50
F0.0
sg51
I1
sbssg51
I0
sbssg72
I4
sg73
I1
sg74
I1
sg75
I515
sg76
I515
sg77
I1
sg78
Nsg79
(dp741
I0
g0
(g81
g2
Ntp742
Rp743
(dp744
g85
g86
sg87
F4.924273
sg88
F0.0
sg89
g90
sg51
I0
sbsI1
g0
(g81
g2
Ntp745
Rp746
(dp747
g85
g86
sg87
F4.924273
sg88
F0.0
sg89
g90
sg51
I1
sbsI2
g0
(g81
g2
Ntp748
Rp749
(dp750
g85
g86
sg87
F4.924273
sg88
F0.0
sg89
g90
sg51
I2
sbsI3
g0
(g81
g2
Ntp751
Rp752
(dp753
g85
g86
sg87
F4.924273
sg88
F0.0
sg89
g90
sg51
I3
sbsI4
g0
(g81
g2
Ntp754
Rp755
(dp756
g85
g86
sg87
F4.924273
sg88
F0.0
sg89
g90
sg51
I4
sbsI5
g0
(g81
g2
Ntp757
Rp758
(dp759
g85
g106
sg87
F4.441203365248558
sg88
F0.30228586489378456
sg89
g107
sg51
I5
sbsI6
g0
(g81
g2
Ntp760
Rp761
(dp762
g85
g106
sg87
F3.422024064032995
sg88
F-0.2288618064751335
sg89
g107
sg51
I6
sbsI7
g0
(g81
g2
Ntp763
Rp764
(dp765
g85
g106
sg87
F2.674331431253586
sg88
F-0.07992829587922415
sg89
g107
sg51
I7
sbsI8
g0
(g81
g2
Ntp766
Rp767
(dp768
g85
g106
sg87
F3.4341587889665695
sg88
F0.7316288177073452
sg89
g107
sg51
I8
sbssg117
(dp769
(I3
I5
tp770
g0
(g120
g2
Ntp771
Rp772
(dp773
g124
I01
sg125
F-0.9784749559811183
sg126
I5
sg127
I3
sg128
I12
sbs(I3
I6
tp774
g0
(g120
g2
Ntp775
Rp776
(dp777
g124
I01
sg125
F1.9609868128695402
sg126
I6
sg127
I3
sg128
I13
sbs(I3
I7
tp778
g0
(g120
g2
Ntp779
Rp780
(dp781
g124
I01
sg125
F1.3295193610286968
sg126
I7
sg127
I3
sg128
I14
sbs(I3
I8
tp782
g0
(g120
g2
Ntp783
Rp784
(dp785
g124
I01
sg125
F1.0849897244891102
sg126
I8
sg127
I3
sg128
I15
sbssg141
I4
sg142
I5
sg143
g146
sg51
I548
sbag0
(g16
g2
Ntp786
Rp787
(dp788
g20
(lp789
g22
ag23
aS'a0'
p790
aS'h0'
p791
asg26
(lp792
g28
aS'a0t0'
p793
aS'a0t1'
p794
aS'a0t2'
p795
aS'a0t3'
p796
asg33
(dp797
sg35
(dp798
I0
g0
(g37
g2
Ntp799
Rp800
(dp801
g41
(dp802
g43
g0
(g44
g2
Ntp803
Rp804
(dp805
g48
F1.0
sg49
F0.0
sg50
F0.01
sg51
I1
sbsg52
g0
(g44
g2
Ntp806
Rp807
(dp808
g48
F1.0
sg49
F0.0
sg50
F0.02
sg51
I1
sbsg56
g0
(g44
g2
Ntp809
Rp810
(dp811
g48
F1.0
sg49
F0.0
sg50
F0.0
sg51
I1
sbsg60
g0
(g44
g2
Ntp812
Rp813
(dp814
g48
F1.0
sg49
F0.0
sg50
F0.2
sg51
I1
sbsg64
g0
(g44
g2
Ntp815
Rp816
(dp817
g48
F1.0
sg49
F0.0
sg50
F0.02
sg51
I1
sbsg68
g0
(g44
g2
Ntp818
Rp819
(dp820
g48
F1.0
sg49
F0.0
sg50
F0.0
sg51
I1
sbssg51
I0
sbssg72
I4
sg73
I1
sg74
I1
sg75
I496
sg76
I496
sg77
I1
sg78
Nsg79
(dp821
I0
g0
(g81
g2
Ntp822
Rp823
(dp824
g85
g86
sg87
F4.924273
sg88
F0.0
sg89
g90
sg51
I0
sbsI1
g0
(g81
g2
Ntp825
Rp826
(dp827
g85
g86
sg87
F4.924273
sg88
F0.0
sg89
g90
sg51
I1
sbsI2
g0
(g81
g2
Ntp828
Rp829
(dp830
g85
g86
sg87
F4.924273
sg88
F0.0
sg89
g90
sg51
I2
sbsI3
g0
(g81
g2
Ntp831
Rp832
(dp833
g85
g86
sg87
F4.924273
sg88
F0.0
sg89
g90
sg51
I3
sbsI4
g0
(g81
g2
Ntp834
Rp835
(dp836
g85
g86
sg87
F4.924273
sg88
F0.0
sg89
g90
sg51
I4
sbsI5
g0
(g81
g2
Ntp837
Rp838
(dp839
g85
g106
sg87
F4.523353362799005
sg88
F-0.5902885076138134
sg89
g107
sg51
I5
sbsI6
g0
(g81
g2
Ntp840
Rp841
(dp842
g85
g106
sg87
F3.026229054328228
sg88
F-0.17882787337350803
sg89
g107
sg51
I6
sbsI7
g0
(g81
g2
Ntp843
Rp844
(dp845
g85
g106
sg87
F4.54103384342227
sg88
F-1.3904737653195443
sg89
g107
sg51
I7
sbsI8
g0
(g81
g2
Ntp846
Rp847
(dp848
g85
g106
sg87
F3.435149122584158
sg88
F-0.6038506358516081
sg89
g107
sg51
I8
sbsI9
g0
(g81
g2
Ntp849
Rp850
(dp851
g85
g106
sg87
F4.924273
sg88
F-0.7599255244821641
sg89
S'HIDDEN'
p852
sg51
I9
sbssg117
(dp853
(I3
I5
tp854
g0
(g120
g2
Ntp855
Rp856
(dp857
g124
I01
sg125
F-1.5229788126985409
sg126
I5
sg127
I3
sg128
I12
sbs(I3
I6
tp858
g0
(g120
g2
Ntp859
Rp860
(dp861
g124
I00
sg125
F-0.6647944516001707
sg126
I6
sg127
I3
sg128
I13
sbs(I3
I7
tp862
g0
(g120
g2
Ntp863
Rp864
(dp865
g124
I01
sg125
F1.3097008948565718
sg126
I7
sg127
I3
sg128
I14
sbs(I3
I8
tp866
g0
(g120
g2
Ntp867
Rp868
(dp869
g124
I01
sg125
F0.43983060718934663
sg126
I8
sg127
I3
sg128
I15
sbs(I3
I9
tp870
g0
(g120
g2
Ntp871
Rp872
(dp873
g124
I01
sg125
F0.42652117333722495
sg126
I9
sg127
I3
sg128
I20
sbs(I9
I6
tp874
g0
(g120
g2
Ntp875
Rp876
(dp877
g124
I01
sg125
F2.1471953063363345
sg126
I6
sg127
I9
sg128
I26
sbssg141
I4
sg142
I5
sg143
g146
sg51
I549
sbag0
(g16
g2
Ntp878
Rp879
(dp880
g20
(lp881
g22
ag23
aS'a0'
p882
aS'h0'
p883
asg26
(lp884
g28
aS'a0t0'
p885
aS'a0t1'
p886
aS'a0t2'
p887
aS'a0t3'
p888
asg33
(dp889
sg35
(dp890
I0
g0
(g37
g2
Ntp891
Rp892
(dp893
g41
(dp894
g43
g0
(g44
g2
Ntp895
Rp896
(dp897
g48
F1.0
sg49
F0.0
sg50
F0.01
sg51
I1
sbsg52
g0
(g44
g2
Ntp898
Rp899
(dp900
g48
F1.0
sg49
F0.0
sg50
F0.02
sg51
I1
sbsg56
g0
(g44
g2
Ntp901
Rp902
(dp903
g48
F1.0
sg49
F0.0
sg50
F0.0
sg51
I1
sbsg60
g0
(g44
g2
Ntp904
Rp905
(dp906
g48
F1.0
sg49
F0.0
sg50
F0.2
sg51
I1
sbsg64
g0
(g44
g2
Ntp907
Rp908
(dp909
g48
F1.0
sg49
F0.0
sg50
F0.02
sg51
I1
sbsg68
g0
(g44
g2
Ntp910
Rp911
(dp912
g48
F1.0
sg49
F0.0
sg50
F0.0
sg51
I1
sbssg51
I0
sbssg72
I4
sg73
I1
sg74
I1
sg75
I539
sg76
I496
sg77
I1
sg78
Nsg79
(dp913
I0
g0
(g81
g2
Ntp914
Rp915
(dp916
g85
g86
sg87
F4.924273
sg88
F0.0
sg89
g90
sg51
I0
sbsI1
g0
(g81
g2
Ntp917
Rp918
(dp919
g85
g86
sg87
F4.924273
sg88
F0.0
sg89
g90
sg51
I1
sbsI2
g0
(g81
g2
Ntp920
Rp921
(dp922
g85
g86
sg87
F4.924273
sg88
F0.0
sg89
g90
sg51
I2
sbsI3
g0
(g81
g2
Ntp923
Rp924
(dp925
g85
g86
sg87
F4.924273
sg88
F0.0
sg89
g90
sg51
I3
sbsI4
g0
(g81
g2
Ntp926
Rp927
(dp928
g85
g86
sg87
F4.924273
sg88
F0.0
sg89
g90
sg51
I4
sbsI5
g0
(g81
g2
Ntp929
Rp930
(dp931
g85
g106
sg87
F4.308067702722557
sg88
F-0.4806166979058129
sg89
g107
sg51
I5
sbsI6
g0
(g81
g2
Ntp932
Rp933
(dp934
g85
g106
sg87
F3.0920675912587647
sg88
F-0.7769694597873082
sg89
g107
sg51
I6
sbsI7
g0
(g81
g2
Ntp935
Rp936
(dp937
g85
g106
sg87
F4.157650495873876
sg88
F-0.35367755702478915
sg89
g107
sg51
I7
sbsI8
g0
(g81
g2
Ntp938
Rp939
(dp940
g85
g106
sg87
F3.0528890120740857
sg88
F0.29659095565011756
sg89
g107
sg51
I8
sbssg117
(dp941
(I3
I5
tp942
g0
(g120
g2
Ntp943
Rp944
(dp945
g124
I01
sg125
F-1.4944868477319249
sg126
I5
sg127
I3
sg128
I12
sbs(I3
I6
tp946
g0
(g120
g2
Ntp947
Rp948
(dp949
g124
I01
sg125
F1.8089897255113578
sg126
I6
sg127
I3
sg128
I13
sbs(I3
I7
tp950
g0
(g120
g2
Ntp951
Rp952
(dp953
g124
I01
sg125
F0.200823663173455
sg126
I7
sg127
I3
sg128
I14
sbs(I3
I8
tp954
g0
(g120
g2
Ntp955
Rp956
(dp957
g124
I01
sg125
F1.0293770554260224
sg126
I8
sg127
I3
sg128
I15
sbs(I5
I5
tp958
g0
(g120
g2
Ntp959
Rp960
(dp961
g124
I00
sg125
F-2.577077014025547
sg126
I5
sg127
I5
sg128
I44
sbssg141
I4
sg142
I5
sg143
g146
sg51
I550
sbag0
(g16
g2
Ntp962
Rp963
(dp964
g20
(lp965
g22
ag23
aS'a0'
p966
aS'h0'
p967
asg26
(lp968
g28
aS'a0t0'
p969
aS'a0t1'
p970
aS'a0t2'
p971
aS'a0t3'
p972
asg33
(dp973
sg35
(dp974
I0
g0
(g37
g2
Ntp975
Rp976
(dp977
g41
(dp978
g43
g0
(g44
g2
Ntp979
Rp980
(dp981
g48
F1.0
sg49
F0.0
sg50
F0.01
sg51
I1
sbsg52
g0
(g44
g2
Ntp982
Rp983
(dp984
g48
F1.0
sg49
F0.0
sg50
F0.02
sg51
I1
sbsg56
g0
(g44
g2
Ntp985
Rp986
(dp987
g48
F1.0
sg49
F0.0
sg50
F0.0
sg51
I1
sbsg60
g0
(g44
g2
Ntp988
Rp989
(dp990
g48
F1.0
sg49
F0.0
sg50
F0.2
sg51
I1
sbsg64
g0
(g44
g2
Ntp991
Rp992
(dp993
g48
F1.0
sg49
F0.0
sg50
F0.02
sg51
I1
sbsg68
g0
(g44
g2
Ntp994
Rp995
(dp996
g48
F1.0
sg49
F0.0
sg50
F0.0
sg51
I1
sbssg51
I0
sbssg72
I4
sg73
I1
sg74
I1
sg75
I508
sg76
I468
sg77
I1
sg78
Nsg79
(dp997
I0
g0
(g81
g2
Ntp998
Rp999
(dp1000
g85
g86
sg87
F4.924273
sg88
F0.0
sg89
g90
sg51
I0
sbsI1
g0
(g81
g2
Ntp1001
Rp1002
(dp1003
g85
g86
sg87
F4.924273
sg88
F0.0
sg89
g90
sg51
I1
sbsI2
g0
(g81
g2
Ntp1004
Rp1005
(dp1006
g85
g86
sg87
F4.924273
sg88
F0.0
sg89
g90
sg51
I2
sbsI3
g0
(g81
g2
Ntp1007
Rp1008
(dp1009
g85
g86
sg87
F4.924273
sg88
F0.0
sg89
g90
sg51
I3
sbsI4
g0
(g81
g2
Ntp1010
Rp1011
(dp1012
g85
g86
sg87
F4.924273
sg88
F0.0
sg89
g90
sg51
I4
sbsI5
g0
(g81
g2
Ntp1013
Rp1014
(dp1015
g85
g106
sg87
F3.9583371619487395
sg88
F1.5540377012119442
sg89
g107
sg51
I5
sbsI6
g0
(g81
g2
Ntp1016
Rp1017
(dp1018
g85
g106
sg87
F1.260714224165275
sg88
F1.4996216369010833
sg89
g107
sg51
I6
sbsI7
g0
(g81
g2
Ntp1019
Rp1020
(dp1021
g85
g106
sg87
F5.620131412103115
sg88
F0.009371268570080249
sg89
g107
sg51
I7
sbsI8
g0
(g81
g2
Ntp1022
Rp1023
(dp1024
g85
g106
sg87
F3.403479158842382
sg88
F0.3219893896643744
sg89
g107
sg51
I8
sbsI9
g0
(g81
g2
Ntp1025
Rp1026
(dp1027
g85
g106
sg87
F5.562981488347779
sg88
F-0.18835569786548279
sg89
g852
sg51
I9
sbssg117
(dp1028
(I3
I5
tp1029
g0
(g120
g2
Ntp1030
Rp1031
(dp1032
g124
I01
sg125
F-0.5717019653876403
sg126
I5
sg127
I3
sg128
I12
sbs(I3
I6
tp1033
g0
(g120
g2
Ntp1034
Rp1035
(dp1036
g124
I01
sg125
F2.4628341073453006
sg126
I6
sg127
I3
sg128
I13
sbs(I3
I7
tp1037
g0
(g120
g2
Ntp1038
Rp1039
(dp1040
g124
I00
sg125
F0.5099234519435213
sg126
I7
sg127
I3
sg128
I14
sbs(I3
I8
tp1041
g0
(g120
g2
Ntp1042
Rp1043
(dp1044
g124
I01
sg125
F1.6335130644151725
sg126
I8
sg127
I3
sg128
I15
sbs(I3
I9
tp1045
g0
(g120
g2
Ntp1046
Rp1047
(dp1048
g124
I01
sg125
F0.45140224315080757
sg126
I9
sg127
I3
sg128
I20
sbs(I9
I7
tp1049
g0
(g120
g2
Ntp1050
Rp1051
(dp1052
g124
I01
sg125
F0.48612539534981963
sg126
I7
sg127
I9
sg128
I21
sbssg141
I4
sg142
I5
sg143
g146
sg51
I551
sbag0
(g16
g2
Ntp1053
Rp1054
(dp1055
g20
(lp1056
g22
ag23
aS'a0'
p1057
aS'h0'
p1058
asg26
(lp1059
g28
aS'a0t0'
p1060
aS'a0t1'
p1061
aS'a0t2'
p1062
aS'a0t3'
p1063
asg33
(dp1064
sg35
(dp1065
I0
g0
(g37
g2
Ntp1066
Rp1067
(dp1068
g41
(dp1069
g43
g0
(g44
g2
Ntp1070
Rp1071
(dp1072
g48
F1.0
sg49
F0.0
sg50
F0.01
sg51
I1
sbsg52
g0
(g44
g2
Ntp1073
Rp1074
(dp1075
g48
F1.0
sg49
F0.0
sg50
F0.02
sg51
I1
sbsg56
g0
(g44
g2
Ntp1076
Rp1077
(dp1078
g48
F1.0
sg49
F0.0
sg50
F0.0
sg51
I1
sbsg60
g0
(g44
g2
Ntp1079
Rp1080
(dp1081
g48
F1.0
sg49
F0.0
sg50
F0.2
sg51
I1
sbsg64
g0
(g44
g2
Ntp1082
Rp1083
(dp1084
g48
F1.0
sg49
F0.0
sg50
F0.02
sg51
I1
sbsg68
g0
(g44
g2
Ntp1085
Rp1086
(dp1087
g48
F1.0
sg49
F0.0
sg50
F0.0
sg51
I1
sbssg51
I0
sbssg72
I4
sg73
I1
sg74
I1
sg75
I539
sg76
I496
sg77
I1
sg78
Nsg79
(dp1088
I0
g0
(g81
g2
Ntp1089
Rp1090
(dp1091
g85
g86
sg87
F4.924273
sg88
F0.0
sg89
g90
sg51
I0
sbsI1
g0
(g81
g2
Ntp1092
Rp1093
(dp1094
g85
g86
sg87
F4.924273
sg88
F0.0
sg89
g90
sg51
I1
sbsI2
g0
(g81
g2
Ntp1095
Rp1096
(dp1097
g85
g86
sg87
F4.924273
sg88
F0.0
sg89
g90
sg51
I2
sbsI3
g0
(g81
g2
Ntp1098
Rp1099
(dp1100
g85
g86
sg87
F4.924273
sg88
F0.0
sg89
g90
sg51
I3
sbsI4
g0
(g81
g2
Ntp1101
Rp1102
(dp1103
g85
g86
sg87
F4.924273
sg88
F0.0
sg89
g90
sg51
I4
sbsI5
g0
(g81
g2
Ntp1104
Rp1105
(dp1106
g85
g106
sg87
F4.185311913680503
sg88
F-0.6824227374946481
sg89
g107
sg51
I5
sbsI6
g0
(g81
g2
Ntp1107
Rp1108
(dp1109
g85
g106
sg87
F3.85240247349651
sg88
F-0.2742503241119822
sg89
g107
sg51
I6
sbsI7
g0
(g81
g2
Ntp1110
Rp1111
(dp1112
g85
g106
sg87
F4.303097775085386
sg88
F-0.6182389152694229
sg89
g107
sg51
I7
sbsI8
g0
(g81
g2
Ntp1113
Rp1114
(dp1115
g85
g106
sg87
F2.832234399901385
sg88
F-0.4728527220526957
sg89
g107
sg51
I8
sbssg117
(dp1116
(I3
I5
tp1117
g0
(g120
g2
Ntp1118
Rp1119
(dp1120
g124
I01
sg125
F-0.7865130284687717
sg126
I5
sg127
I3
sg128
I12
sbs(I3
I6
tp1121
g0
(g120
g2
Ntp1122
Rp1123
(dp1124
g124
I01
sg125
F0.07212841340356625
sg126
I6
sg127
I3
sg128
I13
sbs(I3
I7
tp1125
g0
(g120
g2
Ntp1126
Rp1127
(dp1128
g124
I01
sg125
F1.3740496996102127
sg126
I7
sg127
I3
sg128
I14
sbs(I3
I8
tp1129
g0
(g120
g2
Ntp1130
Rp1131
(dp1132
g124
I01
sg125
F0.5143394500743652
sg126
I8
sg127
I3
sg128
I15
sbs(I5
I5
tp1133
g0
(g120
g2
Ntp1134
Rp1135
(dp1136
g124
I00
sg125
F-1.42443784583832
sg126
I5
sg127
I5
sg128
I44
sbssg141
I4
sg142
I5
sg143
g146
sg51
I552
sbag0
(g16
g2
Ntp1137
Rp1138
(dp1139
g20
(lp1140
g22
ag23
aS'a0'
p1141
aS'h0'
p1142
asg26
(lp1143
g28
aS'a0t0'
p1144
aS'a0t1'
p1145
aS'a0t2'
p1146
aS'a0t3'
p1147
asg33
(dp1148
sg35
(dp1149
I0
g0
(g37
g2
Ntp1150
Rp1151
(dp1152
g41
(dp1153
g43
g0
(g44
g2
Ntp1154
Rp1155
(dp1156
g48
F1.0
sg49
F0.0
sg50
F0.01
sg51
I1
sbsg52
g0
(g44
g2
Ntp1157
Rp1158
(dp1159
g48
F1.0
sg49
F0.0
sg50
F0.02
sg51
I1
sbsg56
g0
(g44
g2
Ntp1160
Rp1161
(dp1162
g48
F1.0
sg49
F0.0
sg50
F0.0
sg51
I1
sbsg60
g0
(g44
g2
Ntp1163
Rp1164
(dp1165
g48
F1.0
sg49
F0.0
sg50
F0.2
sg51
I1
sbsg64
g0
(g44
g2
Ntp1166
Rp1167
(dp1168
g48
F1.0
sg49
F0.0
sg50
F0.02
sg51
I1
sbsg68
g0
(g44
g2
Ntp1169
Rp1170
(dp1171
g48
F1.0
sg49
F0.0
sg50
F0.0
sg51
I1
sbssg51
I0
sbssg72
I4
sg73
I1
sg74
I1
sg75
I496
sg76
I539
sg77
I1
sg78
Nsg79
(dp1172
I0
g0
(g81
g2
Ntp1173
Rp1174
(dp1175
g85
g86
sg87
F4.924273
sg88
F0.0
sg89
g90
sg51
I0
sbsI1
g0
(g81
g2
Ntp1176
Rp1177
(dp1178
g85
g86
sg87
F4.924273
sg88
F0.0
sg89
g90
sg51
I1
sbsI2
g0
(g81
g2
Ntp1179
Rp1180
(dp1181
g85
g86
sg87
F4.924273
sg88
F0.0
sg89
g90
sg51
I2
sbsI3
g0
(g81
g2
Ntp1182
Rp1183
(dp1184
g85
g86
sg87
F4.924273
sg88
F0.0
sg89
g90
sg51
I3
sbsI4
g0
(g81
g2
Ntp1185
Rp1186
(dp1187
g85
g86
sg87
F4.924273
sg88
F0.0
sg89
g90
sg51
I4
sbsI5
g0
(g81
g2
Ntp1188
Rp1189
(dp1190
g85
g106
sg87
F4.683155801636186
sg88
F-1.0120513626481529
sg89
g107
sg51
I5
sbsI6
g0
(g81
g2
Ntp1191
Rp1192
(dp1193
g85
g106
sg87
F3.1346119332607185
sg88
F0.257905473118425
sg89
g107
sg51
I6
sbsI7
g0
(g81
g2
Ntp1194
Rp1195
(dp1196
g85
g106
sg87
F4.54103384342227
sg88
F-0.2672455999596005
sg89
g107
sg51
I7
sbsI8
g0
(g81
g2
Ntp1197
Rp1198
(dp1199
g85
g106
sg87
F3.9058857938382125
sg88
F0.3512100310789432
sg89
g107
sg51
I8
sbssg117
(dp1200
(I3
I5
tp1201
g0
(g120
g2
Ntp1202
Rp1203
(dp1204
g124
I01
sg125
F-1.2905588760993505
sg126
I5
sg127
I3
sg128
I12
sbs(I3
I6
tp1205
g0
(g120
g2
Ntp1206
Rp1207
(dp1208
g124
I01
sg125
F1.302231767258263
sg126
I6
sg127
I3
sg128
I13
sbs(I3
I7
tp1209
g0
(g120
g2
Ntp1210
Rp1211
(dp1212
g124
I01
sg125
F0.7800644419125439
sg126
I7
sg127
I3
sg128
I14
sbs(I3
I8
tp1213
g0
(g120
g2
Ntp1214
Rp1215
(dp1216
g124
I01
sg125
F0.07370818882129741
sg126
I8
sg127
I3
sg128
I15
sbs(I5
I5
tp1217
g0
(g120
g2
Ntp1218
Rp1219
(dp1220
g124
I00
sg125
F-1.8221628985668055
sg126
I5
sg127
I5
sg128
I44
sbssg141
I4
sg142
I5
sg143
g146
sg51
I553
sbag0
(g16
g2
Ntp1221
Rp1222
(dp1223
g20
(lp1224
g22
ag23
aS'a0'
p1225
aS'h0'
p1226
asg26
(lp1227
g28
aS'a0t0'
p1228
aS'a0t1'
p1229
aS'a0t2'
p1230
aS'a0t3'
p1231
asg33
(dp1232
sg35
(dp1233
I0
g0
(g37
g2
Ntp1234
Rp1235
(dp1236
g41
(dp1237
g43
g0
(g44
g2
Ntp1238
Rp1239
(dp1240
g48
F1.0
sg49
F0.0
sg50
F0.01
sg51
I1
sbsg52
g0
(g44
g2
Ntp1241
Rp1242
(dp1243
g48
F1.0
sg49
F0.0
sg50
F0.02
sg51
I1
sbsg56
g0
(g44
g2
Ntp1244
Rp1245
(dp1246
g48
F1.0
sg49
F0.0
sg50
F0.0
sg51
I1
sbsg60
g0
(g44
g2
Ntp1247
Rp1248
(dp1249
g48
F1.0
sg49
F0.0
sg50
F0.2
sg51
I1
sbsg64
g0
(g44
g2
Ntp1250
Rp1251
(dp1252
g48
F1.0
sg49
F0.0
sg50
F0.02
sg51
I1
sbsg68
g0
(g44
g2
Ntp1253
Rp1254
(dp1255
g48
F1.0
sg49
F0.0
sg50
F0.0
sg51
I1
sbssg51
I0
sbssg72
I4
sg73
I1
sg74
I1
sg75
I515
sg76
I508
sg77
I1
sg78
Nsg79
(dp1256
I0
g0
(g81
g2
Ntp1257
Rp1258
(dp1259
g85
g86
sg87
F4.924273
sg88
F0.0
sg89
g90
sg51
I0
sbsI1
g0
(g81
g2
Ntp1260
Rp1261
(dp1262
g85
g86
sg87
F4.924273
sg88
F0.0
sg89
g90
sg51
I1
sbsI2
g0
(g81
g2
Ntp1263
Rp1264
(dp1265
g85
g86
sg87
F4.924273
sg88
F0.0
sg89
g90
sg51
I2
sbsI3
g0
(g81
g2
Ntp1266
Rp1267
(dp1268
g85
g86
sg87
F4.924273
sg88
F0.0
sg89
g90
sg51
I3
sbsI4
g0
(g81
g2
Ntp1269
Rp1270
(dp1271
g85
g86
sg87
F4.924273
sg88
F0.0
sg89
g90
sg51
I4
sbsI5
g0
(g81
g2
Ntp1272
Rp1273
(dp1274
g85
g106
sg87
F3.8350436732885753
sg88
F0.8861476956931
sg89
g107
sg51
I5
sbsI6
g0
(g81
g2
Ntp1275
Rp1276
(dp1277
g85
g106
sg87
F2.7134973814965075
sg88
F0.7435756649306862
sg89
g107
sg51
I6
sbsI7
g0
(g81
g2
Ntp1278
Rp1279
(dp1280
g85
g106
sg87
F3.838760691710592
sg88
F-0.2904627031294213
sg89
g107
sg51
I7
sbsI8
g0
(g81
g2
Ntp1281
Rp1282
(dp1283
g85
g106
sg87
F6.030982695033266
sg88
F0.7458962515614389
sg89
g107
sg51
I8
sbssg117
(dp1284
(I3
I5
tp1285
g0
(g120
g2
Ntp1286
Rp1287
(dp1288
g124
I01
sg125
F-0.9349046261644994
sg126
I5
sg127
I3
sg128
I12
sbs(I3
I6
tp1289
g0
(g120
g2
Ntp1290
Rp1291
(dp1292
g124
I01
sg125
F1.8565942170683196
sg126
I6
sg127
I3
sg128
I13
sbs(I3
I7
tp1293
g0
(g120
g2
Ntp1294
Rp1295
(dp1296
g124
I01
sg125
F2.3116551959685605
sg126
I7
sg127
I3
sg128
I14
sbs(I3
I8
tp1297
g0
(g120
g2
Ntp1298
Rp1299
(dp1300
g124
I01
sg125
F0.42675991802624935
sg126
I8
sg127
I3
sg128
I15
sbssg141
I4
sg142
I5
sg143
g146
sg51
I554
sbag0
(g16
g2
Ntp1301
Rp1302
(dp1303
g20
(lp1304
g22
ag23
aS'a0'
p1305
aS'h0'
p1306
asg26
(lp1307
g28
aS'a0t0'
p1308
aS'a0t1'
p1309
aS'a0t2'
p1310
aS'a0t3'
p1311
asg33
(dp1312
sg35
(dp1313
I0
g0
(g37
g2
Ntp1314
Rp1315
(dp1316
g41
(dp1317
g43
g0
(g44
g2
Ntp1318
Rp1319
(dp1320
g48
F1.0
sg49
F0.0
sg50
F0.01
sg51
I1
sbsg52
g0
(g44
g2
Ntp1321
Rp1322
(dp1323
g48
F1.0
sg49
F0.0
sg50
F0.02
sg51
I1
sbsg56
g0
(g44
g2
Ntp1324
Rp1325
(dp1326
g48
F1.0
sg49
F0.0
sg50
F0.0
sg51
I1
sbsg60
g0
(g44
g2
Ntp1327
Rp1328
(dp1329
g48
F1.0
sg49
F0.0
sg50
F0.2
sg51
I1
sbsg64
g0
(g44
g2
Ntp1330
Rp1331
(dp1332
g48
F1.0
sg49
F0.0
sg50
F0.02
sg51
I1
sbsg68
g0
(g44
g2
Ntp1333
Rp1334
(dp1335
g48
F1.0
sg49
F0.0
sg50
F0.0
sg51
I1
sbssg51
I0
sbssg72
I4
sg73
I1
sg74
I1
sg75
I539
sg76
I508
sg77
I1
sg78
Nsg79
(dp1336
I0
g0
(g81
g2
Ntp1337
Rp1338
(dp1339
g85
g86
sg87
F4.924273
sg88
F0.0
sg89
g90
sg51
I0
sbsI1
g0
(g81
g2
Ntp1340
Rp1341
(dp1342
g85
g86
sg87
F4.924273
sg88
F0.0
sg89
g90
sg51
I1
sbsI2
g0
(g81
g2
Ntp1343
Rp1344
(dp1345
g85
g86
sg87
F4.924273
sg88
F0.0
sg89
g90
sg51
I2
sbsI3
g0
(g81
g2
Ntp1346
Rp1347
(dp1348
g85
g86
sg87
F4.924273
sg88
F0.0
sg89
g90
sg51
I3
sbsI4
g0
(g81
g2
Ntp1349
Rp1350
(dp1351
g85
g86
sg87
F4.924273
sg88
F0.0
sg89
g90
sg51
I4
sbsI5
g0
(g81
g2
Ntp1352
Rp1353
(dp1354
g85
g106
sg87
F4.7485030998134645
sg88
F0.9660565760028479
sg89
g107
sg51
I5
sbsI6
g0
(g81
g2
Ntp1355
Rp1356
(dp1357
g85
g106
sg87
F1.9816738557381641
sg88
F0.5956248346210345
sg89
g107
sg51
I6
sbsI7
g0
(g81
g2
Ntp1358
Rp1359
(dp1360
g85
g106
sg87
F5.295380952838947
sg88
F0.6536425367328894
sg89
g107
sg51
I7
sbsI8
g0
(g81
g2
Ntp1361
Rp1362
(dp1363
g85
g106
sg87
F3.581398759244352
sg88
F-0.23187666013769753
sg89
g107
sg51
I8
sbssg117
(dp1364
(I3
I5
tp1365
g0
(g120
g2
Ntp1366
Rp1367
(dp1368
g124
I01
sg125
F-0.044378254653244964
sg126
I5
sg127
I3
sg128
I12
sbs(I3
I6
tp1369
g0
(g120
g2
Ntp1370
Rp1371
(dp1372
g124
I01
sg125
F-0.2604027132720595
sg126
I6
sg127
I3
sg128
I13
sbs(I3
I7
tp1373
g0
(g120
g2
Ntp1374
Rp1375
(dp1376
g124
I01
sg125
F0.4498794878616059
sg126
I7
sg127
I3
sg128
I14
sbs(I3
I8
tp1377
g0
(g120
g2
Ntp1378
Rp1379
(dp1380
g124
I01
sg125
F-1.9870436361500772
sg126
I8
sg127
I3
sg128
I15
sbs(I5
I5
tp1381
g0
(g120
g2
Ntp1382
Rp1383
(dp1384
g124
I00
sg125
F-3.427733501736343
sg126
I5
sg127
I5
sg128
I44
sbssg141
I4
sg142
I5
sg143
g146
sg51
I555
sbag0
(g16
g2
Ntp1385
Rp1386
(dp1387
g20
(lp1388
g22
ag23
aS'a0'
p1389
aS'h0'
p1390
asg26
(lp1391
g28
aS'a0t0'
p1392
aS'a0t1'
p1393
aS'a0t2'
p1394
aS'a0t3'
p1395
asg33
(dp1396
sg35
(dp1397
I0
g0
(g37
g2
Ntp1398
Rp1399
(dp1400
g41
(dp1401
g43
g0
(g44
g2
Ntp1402
Rp1403
(dp1404
g48
F1.0
sg49
F0.0
sg50
F0.01
sg51
I1
sbsg52
g0
(g44
g2
Ntp1405
Rp1406
(dp1407
g48
F1.0
sg49
F0.0
sg50
F0.02
sg51
I1
sbsg56
g0
(g44
g2
Ntp1408
Rp1409
(dp1410
g48
F1.0
sg49
F0.0
sg50
F0.0
sg51
I1
sbsg60
g0
(g44
g2
Ntp1411
Rp1412
(dp1413
g48
F1.0
sg49
F0.0
sg50
F0.2
sg51
I1
sbsg64
g0
(g44
g2
Ntp1414
Rp1415
(dp1416
g48
F1.0
sg49
F0.0
sg50
F0.02
sg51
I1
sbsg68
g0
(g44
g2
Ntp1417
Rp1418
(dp1419
g48
F1.0
sg49
F0.0
sg50
F0.0
sg51
I1
sbssg51
I0
sbssg72
I4
sg73
I1
sg74
I1
sg75
I515
sg76
I539
sg77
I1
sg78
Nsg79
(dp1420
I0
g0
(g81
g2
Ntp1421
Rp1422
(dp1423
g85
g86
sg87
F4.924273
sg88
F0.0
sg89
g90
sg51
I0
sbsI1
g0
(g81
g2
Ntp1424
Rp1425
(dp1426
g85
g86
sg87
F4.924273
sg88
F0.0
sg89
g90
sg51
I1
sbsI2
g0
(g81
g2
Ntp1427
Rp1428
(dp1429
g85
g86
sg87
F4.924273
sg88
F0.0
sg89
g90
sg51
I2
sbsI3
g0
(g81
g2
Ntp1430
Rp1431
(dp1432
g85
g86
sg87
F4.924273
sg88
F0.0
sg89
g90
sg51
I3
sbsI4
g0
(g81
g2
Ntp1433
Rp1434
(dp1435
g85
g86
sg87
F4.924273
sg88
F0.0
sg89
g90
sg51
I4
sbsI5
g0
(g81
g2
Ntp1436
Rp1437
(dp1438
g85
g106
sg87
F5.69811166961946
sg88
F-0.29606507629358064
sg89
g107
sg51
I5
sbsI6
g0
(g81
g2
Ntp1439
Rp1440
(dp1441
g85
g106
sg87
F2.845217707735788
sg88
F0.257905473118425
sg89
g107
sg51
I6
sbsI7
g0
(g81
g2
Ntp1442
Rp1443
(dp1444
g85
g106
sg87
F5.4518382081520835
sg88
F0.177163568188372
sg89
g107
sg51
I7
sbsI8
g0
(g81
g2
Ntp1445
Rp1446
(dp1447
g85
g106
sg87
F3.882883876920097
sg88
F1.2732922897339767
sg89
g107
sg51
I8
sbssg117
(dp1448
(I3
I5
tp1449
g0
(g120
g2
Ntp1450
Rp1451
(dp1452
g124
I01
sg125
F-1.3790422297795206
sg126
I5
sg127
I3
sg128
I12
sbs(I3
I6
tp1453
g0
(g120
g2
Ntp1454
Rp1455
(dp1456
g124
I01
sg125
F2.5311084916479354
sg126
I6
sg127
I3
sg128
I13
sbs(I3
I7
tp1457
g0
(g120
g2
Ntp1458
Rp1459
(dp1460
g124
I01
sg125
F1.515490872567715
sg126
I7
sg127
I3
sg128
I14
sbs(I3
I8
tp1461
g0
(g120
g2
Ntp1462
Rp1463
(dp1464
g124
I01
sg125
F0.371702936715308
sg126
I8
sg127
I3
sg128
I15
sbs(I0
I5
tp1465
g0
(g120
g2
Ntp1466
Rp1467
(dp1468
g124
I00
sg125
F-2.633479133492869
sg126
I5
sg127
I0
sg128
I8
sbssg141
I4
sg142
I5
sg143
g146
sg51
I556
sbag0
(g16
g2
Ntp1469
Rp1470
(dp1471
g20
(lp1472
g22
ag23
aS'a0'
p1473
aS'h0'
p1474
asg26
(lp1475
g28
aS'a0t0'
p1476
aS'a0t1'
p1477
aS'a0t2'
p1478
aS'a0t3'
p1479
asg33
(dp1480
sg35
(dp1481
I0
g0
(g37
g2
Ntp1482
Rp1483
(dp1484
g41
(dp1485
g43
g0
(g44
g2
Ntp1486
Rp1487
(dp1488
g48
F1.0
sg49
F0.0
sg50
F0.01
sg51
I1
sbsg52
g0
(g44
g2
Ntp1489
Rp1490
(dp1491
g48
F1.0
sg49
F0.0
sg50
F0.02
sg51
I1
sbsg56
g0
(g44
g2
Ntp1492
Rp1493
(dp1494
g48
F1.0
sg49
F0.0
sg50
F0.0
sg51
I1
sbsg60
g0
(g44
g2
Ntp1495
Rp1496
(dp1497
g48
F1.0
sg49
F0.0
sg50
F0.2
sg51
I1
sbsg64
g0
(g44
g2
Ntp1498
Rp1499
(dp1500
g48
F1.0
sg49
F0.0
sg50
F0.02
sg51
I1
sbsg68
g0
(g44
g2
Ntp1501
Rp1502
(dp1503
g48
F1.0
sg49
F0.0
sg50
F0.0
sg51
I1
sbssg51
I0
sbssg72
I4
sg73
I1
sg74
I1
sg75
I536
sg76
I515
sg77
I1
sg78
Nsg79
(dp1504
I0
g0
(g81
g2
Ntp1505
Rp1506
(dp1507
g85
g86
sg87
F4.924273
sg88
F0.0
sg89
g90
sg51
I0
sbsI1
g0
(g81
g2
Ntp1508
Rp1509
(dp1510
g85
g86
sg87
F4.924273
sg88
F0.0
sg89
g90
sg51
I1
sbsI2
g0
(g81
g2
Ntp1511
Rp1512
(dp1513
g85
g86
sg87
F4.924273
sg88
F0.0
sg89
g90
sg51
I2
sbsI3
g0
(g81
g2
Ntp1514
Rp1515
(dp1516
g85
g86
sg87
F4.924273
sg88
F0.0
sg89
g90
sg51
I3
sbsI4
g0
(g81
g2
Ntp1517
Rp1518
(dp1519
g85
g86
sg87
F4.924273
sg88
F0.0
sg89
g90
sg51
I4
sbsI5
g0
(g81
g2
Ntp1520
Rp1521
(dp1522
g85
g106
sg87
F6.502023463609385
sg88
F0.7660242306928012
sg89
g107
sg51
I5
sbsI6
g0
(g81
g2
Ntp1523
Rp1524
(dp1525
g85
g106
sg87
F3.1013031202123917
sg88
F-0.9114553332846422
sg89
g107
sg51
I6
sbsI7
g0
(g81
g2
Ntp1526
Rp1527
(dp1528
g85
g106
sg87
F3.8816045900188563
sg88
F0.011674164939424692
sg89
g107
sg51
I7
sbsI8
g0
(g81
g2
Ntp1529
Rp1530
(dp1531
g85
g106
sg87
F2.8328748613981793
sg88
F-0.5010411970399831
sg89
g107
sg51
I8
sbssg117
(dp1532
(I3
I5
tp1533
g0
(g120
g2
Ntp1534
Rp1535
(dp1536
g124
I01
sg125
F-1.997619027003897
sg126
I5
sg127
I3
sg128
I12
sbs(I3
I6
tp1537
g0
(g120
g2
Ntp1538
Rp1539
(dp1540
g124
I01
sg125
F0.4746850466246101
sg126
I6
sg127
I3
sg128
I13
sbs(I3
I7
tp1541
g0
(g120
g2
Ntp1542
Rp1543
(dp1544
g124
I01
sg125
F1.0009533829015171
sg126
I7
sg127
I3
sg128
I14
sbs(I3
I8
tp1545
g0
(g120
g2
Ntp1546
Rp1547
(dp1548
g124
I01
sg125
F2.4233149373693
sg126
I8
sg127
I3
sg128
I15
sbssg141
I4
sg142
I5
sg143
g146
sg51
I557
sbag0
(g16
g2
Ntp1549
Rp1550
(dp1551
g20
(lp1552
g22
ag23
aS'a0'
p1553
aS'h0'
p1554
asg26
(lp1555
g28
aS'a0t0'
p1556
aS'a0t1'
p1557
aS'a0t2'
p1558
aS'a0t3'
p1559
asg33
(dp1560
sg35
(dp1561
I0
g0
(g37
g2
Ntp1562
Rp1563
(dp1564
g41
(dp1565
g43
g0
(g44
g2
Ntp1566
Rp1567
(dp1568
g48
F1.0
sg49
F0.0
sg50
F0.01
sg51
I1
sbsg52
g0
(g44
g2
Ntp1569
Rp1570
(dp1571
g48
F1.0
sg49
F0.0
sg50
F0.02
sg51
I1
sbsg56
g0
(g44
g2
Ntp1572
Rp1573
(dp1574
g48
F1.0
sg49
F0.0
sg50
F0.0
sg51
I1
sbsg60
g0
(g44
g2
Ntp1575
Rp1576
(dp1577
g48
F1.0
sg49
F0.0
sg50
F0.2
sg51
I1
sbsg64
g0
(g44
g2
Ntp1578
Rp1579
(dp1580
g48
F1.0
sg49
F0.0
sg50
F0.02
sg51
I1
sbsg68
g0
(g44
g2
Ntp1581
Rp1582
(dp1583
g48
F1.0
sg49
F0.0
sg50
F0.0
sg51
I1
sbssg51
I0
sbssg72
I4
sg73
I1
sg74
I1
sg75
I468
sg76
I536
sg77
I1
sg78
Nsg79
(dp1584
I0
g0
(g81
g2
Ntp1585
Rp1586
(dp1587
g85
g86
sg87
F4.924273
sg88
F0.0
sg89
g90
sg51
I0
sbsI1
g0
(g81
g2
Ntp1588
Rp1589
(dp1590
g85
g86
sg87
F4.924273
sg88
F0.0
sg89
g90
sg51
I1
sbsI2
g0
(g81
g2
Ntp1591
Rp1592
(dp1593
g85
g86
sg87
F4.924273
sg88
F0.0
sg89
g90
sg51
I2
sbsI3
g0
(g81
g2
Ntp1594
Rp1595
(dp1596
g85
g86
sg87
F4.924273
sg88
F0.0
sg89
g90
sg51
I3
sbsI4
g0
(g81
g2
Ntp1597
Rp1598
(dp1599
g85
g86
sg87
F4.924273
sg88
F0.0
sg89
g90
sg51
I4
sbsI5
g0
(g81
g2
Ntp1600
Rp1601
(dp1602
g85
g106
sg87
F6.8715203954710535
sg88
F0.286105376384889
sg89
g107
sg51
I5
sbsI6
g0
(g81
g2
Ntp1603
Rp1604
(dp1605
g85
g106
sg87
F3.5061807533737213
sg88
F0.105326576801125
sg89
g107
sg51
I6
sbsI7
g0
(g81
g2
Ntp1606
Rp1607
(dp1608
g85
g106
sg87
F4.3440634685374775
sg88
F-0.30937027727946026
sg89
g107
sg51
I7
sbsI8
g0
(g81
g2
Ntp1609
Rp1610
(dp1611
g85
g106
sg87
F4.076675341841604
sg88
F-0.6480068162824175
sg89
g107
sg51
I8
sbssg117
(dp1612
(I3
I5
tp1613
g0
(g120
g2
Ntp1614
Rp1615
(dp1616
g124
I01
sg125
F0.5814944790156016
sg126
I5
sg127
I3
sg128
I12
sbs(I3
I6
tp1617
g0
(g120
g2
Ntp1618
Rp1619
(dp1620
g124
I01
sg125
F-0.16627959102525114
sg126
I6
sg127
I3
sg128
I13
sbs(I3
I7
tp1621
g0
(g120
g2
Ntp1622
Rp1623
(dp1624
g124
I01
sg125
F0.05287624655443057
sg126
I7
sg127
I3
sg128
I14
sbs(I3
I8
tp1625
g0
(g120
g2
Ntp1626
Rp1627
(dp1628
g124
I01
sg125
F2.8142295146012812
sg126
I8
sg127
I3
sg128
I15
sbssg141
I4
sg142
I5
sg143
g146
sg51
I558
sbag0
(g16
g2
Ntp1629
Rp1630
(dp1631
g20
(lp1632
g22
ag23
aS'a0'
p1633
aS'h0'
p1634
asg26
(lp1635
g28
aS'a0t0'
p1636
aS'a0t1'
p1637
aS'a0t2'
p1638
aS'a0t3'
p1639
asg33
(dp1640
sg35
(dp1641
I0
g0
(g37
g2
Ntp1642
Rp1643
(dp1644
g41
(dp1645
g43
g0
(g44
g2
Ntp1646
Rp1647
(dp1648
g48
F1.0
sg49
F0.0
sg50
F0.01
sg51
I1
sbsg52
g0
(g44
g2
Ntp1649
Rp1650
(dp1651
g48
F1.0
sg49
F0.0
sg50
F0.02
sg51
I1
sbsg56
g0
(g44
g2
Ntp1652
Rp1653
(dp1654
g48
F1.0
sg49
F0.0
sg50
F0.0
sg51
I1
sbsg60
g0
(g44
g2
Ntp1655
Rp1656
(dp1657
g48
F1.0
sg49
F0.0
sg50
F0.2
sg51
I1
sbsg64
g0
(g44
g2
Ntp1658
Rp1659
(dp1660
g48
F1.0
sg49
F0.0
sg50
F0.02
sg51
I1
sbsg68
g0
(g44
g2
Ntp1661
Rp1662
(dp1663
g48
F1.0
sg49
F0.0
sg50
F0.0
sg51
I1
sbssg51
I0
sbssg72
I4
sg73
I1
sg74
I1
sg75
I536
sg76
I443
sg77
I1
sg78
Nsg79
(dp1664
I0
g0
(g81
g2
Ntp1665
Rp1666
(dp1667
g85
g86
sg87
F4.924273
sg88
F0.0
sg89
g90
sg51
I0
sbsI1
g0
(g81
g2
Ntp1668
Rp1669
(dp1670
g85
g86
sg87
F4.924273
sg88
F0.0
sg89
g90
sg51
I1
sbsI2
g0
(g81
g2
Ntp1671
Rp1672
(dp1673
g85
g86
sg87
F4.924273
sg88
F0.0
sg89
g90
sg51
I2
sbsI3
g0
(g81
g2
Ntp1674
Rp1675
(dp1676
g85
g86
sg87
F4.924273
sg88
F0.0
sg89
g90
sg51
I3
sbsI4
g0
(g81
g2
Ntp1677
Rp1678
(dp1679
g85
g86
sg87
F4.924273
sg88
F0.0
sg89
g90
sg51
I4
sbsI5
g0
(g81
g2
Ntp1680
Rp1681
(dp1682
g85
g106
sg87
F3.4275335230087203
sg88
F0.06647791132736586
sg89
g107
sg51
I5
sbsI6
g0
(g81
g2
Ntp1683
Rp1684
(dp1685
g85
g106
sg87
F2.3482953349525713
sg88
F-1.3207612011404541
sg89
g107
sg51
I6
sbsI7
g0
(g81
g2
Ntp1686
Rp1687
(dp1688
g85
g106
sg87
F4.8755563079610456
sg88
F-0.3522859248907968
sg89
g107
sg51
I7
sbsI8
g0
(g81
g2
Ntp1689
Rp1690
(dp1691
g85
g106
sg87
F4.570000556435721
sg88
F-0.8004179508136792
sg89
g107
sg51
I8
sbssg117
(dp1692
(I3
I5
tp1693
g0
(g120
g2
Ntp1694
Rp1695
(dp1696
g124
I01
sg125
F-0.6454997640283686
sg126
I5
sg127
I3
sg128
I12
sbs(I3
I6
tp1697
g0
(g120
g2
Ntp1698
Rp1699
(dp1700
g124
I01
sg125
F0.9649705968527766
sg126
I6
sg127
I3
sg128
I13
sbs(I3
I7
tp1701
g0
(g120
g2
Ntp1702
Rp1703
(dp1704
g124
I01
sg125
F-0.013957232393871366
sg126
I7
sg127
I3
sg128
I14
sbs(I3
I8
tp1705
g0
(g120
g2
Ntp1706
Rp1707
(dp1708
g124
I01
sg125
F-0.1755662482774636
sg126
I8
sg127
I3
sg128
I15
sbssg141
I4
sg142
I5
sg143
g146
sg51
I559
sbag0
(g16
g2
Ntp1709
Rp1710
(dp1711
g20
(lp1712
g22
ag23
aS'a0'
p1713
aS'h0'
p1714
asg26
(lp1715
g28
aS'a0t0'
p1716
aS'a0t1'
p1717
aS'a0t2'
p1718
aS'a0t3'
p1719
asg33
(dp1720
sg35
(dp1721
I0
g0
(g37
g2
Ntp1722
Rp1723
(dp1724
g41
(dp1725
g43
g0
(g44
g2
Ntp1726
Rp1727
(dp1728
g48
F1.0
sg49
F0.0
sg50
F0.01
sg51
I1
sbsg52
g0
(g44
g2
Ntp1729
Rp1730
(dp1731
g48
F1.0
sg49
F0.0
sg50
F0.02
sg51
I1
sbsg56
g0
(g44
g2
Ntp1732
Rp1733
(dp1734
g48
F1.0
sg49
F0.0
sg50
F0.0
sg51
I1
sbsg60
g0
(g44
g2
Ntp1735
Rp1736
(dp1737
g48
F1.0
sg49
F0.0
sg50
F0.2
sg51
I1
sbsg64
g0
(g44
g2
Ntp1738
Rp1739
(dp1740
g48
F1.0
sg49
F0.0
sg50
F0.02
sg51
I1
sbsg68
g0
(g44
g2
Ntp1741
Rp1742
(dp1743
g48
F1.0
sg49
F0.0
sg50
F0.0
sg51
I1
sbssg51
I0
sbssg72
I4
sg73
I1
sg74
I1
sg75
I443
sg76
I468
sg77
I1
sg78
Nsg79
(dp1744
I0
g0
(g81
g2
Ntp1745
Rp1746
(dp1747
g85
g86
sg87
F4.924273
sg88
F0.0
sg89
g90
sg51
I0
sbsI1
g0
(g81
g2
Ntp1748
Rp1749
(dp1750
g85
g86
sg87
F4.924273
sg88
F0.0
sg89
g90
sg51
I1
sbsI2
g0
(g81
g2
Ntp1751
Rp1752
(dp1753
g85
g86
sg87
F4.924273
sg88
F0.0
sg89
g90
sg51
I2
sbsI3
g0
(g81
g2
Ntp1754
Rp1755
(dp1756
g85
g86
sg87
F4.924273
sg88
F0.0
sg89
g90
sg51
I3
sbsI4
g0
(g81
g2
Ntp1757
Rp1758
(dp1759
g85
g86
sg87
F4.924273
sg88
F0.0
sg89
g90
sg51
I4
sbsI5
g0
(g81
g2
Ntp1760
Rp1761
(dp1762
g85
g106
sg87
F5.4242587154497865
sg88
F0.8350360838061505
sg89
g107
sg51
I5
sbsI6
g0
(g81
g2
Ntp1763
Rp1764
(dp1765
g85
g106
sg87
F2.403741827248008
sg88
F-0.8225368539728647
sg89
g107
sg51
I6
sbsI7
g0
(g81
g2
Ntp1766
Rp1767
(dp1768
g85
g106
sg87
F4.987061407966968
sg88
F-0.9000912565595447
sg89
g107
sg51
I7
sbsI8
g0
(g81
g2
Ntp1769
Rp1770
(dp1771
g85
g106
sg87
F2.769417475335124
sg88
F-0.2704843158860311
sg89
g107
sg51
I8
sbssg117
(dp1772
(I3
I5
tp1773
g0
(g120
g2
Ntp1774
Rp1775
(dp1776
g124
I01
sg125
F-0.3790101804213505
sg126
I5
sg127
I3
sg128
I12
sbs(I3
I6
tp1777
g0
(g120
g2
Ntp1778
Rp1779
(dp1780
g124
I01
sg125
F1.0818464481183847
sg126
I6
sg127
I3
sg128
I13
sbs(I3
I7
tp1781
g0
(g120
g2
Ntp1782
Rp1783
(dp1784
g124
I01
sg125
F0.8463517152642658
sg126
I7
sg127
I3
sg128
I14
sbs(I3
I8
tp1785
g0
(g120
g2
Ntp1786
Rp1787
(dp1788
g124
I01
sg125
F0.8062062686238873
sg126
I8
sg127
I3
sg128
I15
sbssg141
I4
sg142
I5
sg143
g146
sg51
I560
sbag0
(g16
g2
Ntp1789
Rp1790
(dp1791
g20
(lp1792
g22
ag23
aS'a0'
p1793
aS'h0'
p1794
asg26
(lp1795
g28
aS'a0t0'
p1796
aS'a0t1'
p1797
aS'a0t2'
p1798
aS'a0t3'
p1799
asg33
(dp1800
sg35
(dp1801
I0
g0
(g37
g2
Ntp1802
Rp1803
(dp1804
g41
(dp1805
g43
g0
(g44
g2
Ntp1806
Rp1807
(dp1808
g48
F1.0
sg49
F0.0
sg50
F0.01
sg51
I1
sbsg52
g0
(g44
g2
Ntp1809
Rp1810
(dp1811
g48
F1.0
sg49
F0.0
sg50
F0.02
sg51
I1
sbsg56
g0
(g44
g2
Ntp1812
Rp1813
(dp1814
g48
F1.0
sg49
F0.0
sg50
F0.0
sg51
I1
sbsg60
g0
(g44
g2
Ntp1815
Rp1816
(dp1817
g48
F1.0
sg49
F0.0
sg50
F0.2
sg51
I1
sbsg64
g0
(g44
g2
Ntp1818
Rp1819
(dp1820
g48
F1.0
sg49
F0.0
sg50
F0.02
sg51
I1
sbsg68
g0
(g44
g2
Ntp1821
Rp1822
(dp1823
g48
F1.0
sg49
F0.0
sg50
F0.0
sg51
I1
sbssg51
I0
sbssg72
I4
sg73
I1
sg74
I1
sg75
I515
sg76
I468
sg77
I1
sg78
Nsg79
(dp1824
I0
g0
(g81
g2
Ntp1825
Rp1826
(dp1827
g85
g86
sg87
F4.924273
sg88
F0.0
sg89
g90
sg51
I0
sbsI1
g0
(g81
g2
Ntp1828
Rp1829
(dp1830
g85
g86
sg87
F4.924273
sg88
F0.0
sg89
g90
sg51
I1
sbsI2
g0
(g81
g2
Ntp1831
Rp1832
(dp1833
g85
g86
sg87
F4.924273
sg88
F0.0
sg89
g90
sg51
I2
sbsI3
g0
(g81
g2
Ntp1834
Rp1835
(dp1836
g85
g86
sg87
F4.924273
sg88
F0.0
sg89
g90
sg51
I3
sbsI4
g0
(g81
g2
Ntp1837
Rp1838
(dp1839
g85
g86
sg87
F4.924273
sg88
F0.0
sg89
g90
sg51
I4
sbsI5
g0
(g81
g2
Ntp1840
Rp1841
(dp1842
g85
g106
sg87
F2.861293821319688
sg88
F0.3366163456584379
sg89
g107
sg51
I5
sbsI6
g0
(g81
g2
Ntp1843
Rp1844
(dp1845
g85
g106
sg87
F2.778655650045682
sg88
F0.7831403732304512
sg89
g107
sg51
I6
sbsI7
g0
(g81
g2
Ntp1846
Rp1847
(dp1848
g85
g106
sg87
F4.758347828150141
sg88
F-0.48407423245305936
sg89
g107
sg51
I7
sbsI8
g0
(g81
g2
Ntp1849
Rp1850
(dp1851
g85
g106
sg87
F3.590587688763054
sg88
F-0.2704843158860311
sg89
g107
sg51
I8
sbsI9
g0
(g81
g2
Ntp1852
Rp1853
(dp1854
g85
g106
sg87
F4.924273
sg88
F0.0
sg89
g852
sg51
I9
sbssg117
(dp1855
(I3
I5
tp1856
g0
(g120
g2
Ntp1857
Rp1858
(dp1859
g124
I01
sg125
F-1.6644136511518615
sg126
I5
sg127
I3
sg128
I12
sbs(I3
I6
tp1860
g0
(g120
g2
Ntp1861
Rp1862
(dp1863
g124
I00
sg125
F1.9609868128695402
sg126
I6
sg127
I3
sg128
I13
sbs(I3
I7
tp1864
g0
(g120
g2
Ntp1865
Rp1866
(dp1867
g124
I01
sg125
F0.3699182497575835
sg126
I7
sg127
I3
sg128
I14
sbs(I3
I8
tp1868
g0
(g120
g2
Ntp1869
Rp1870
(dp1871
g124
I01
sg125
F0.5944657611337393
sg126
I8
sg127
I3
sg128
I15
sbs(I3
I9
tp1872
g0
(g120
g2
Ntp1873
Rp1874
(dp1875
g124
I01
sg125
F0.9387857391397929
sg126
I9
sg127
I3
sg128
I20
sbs(I9
I6
tp1876
g0
(g120
g2
Ntp1877
Rp1878
(dp1879
g124
I01
sg125
F1.4944208575890445
sg126
I6
sg127
I9
sg128
I26
sbssg141
I4
sg142
I5
sg143
g146
sg51
I561
sbag0
(g16
g2
Ntp1880
Rp1881
(dp1882
g20
(lp1883
g22
ag23
aS'a0'
p1884
aS'h0'
p1885
asg26
(lp1886
g28
aS'a0t0'
p1887
aS'a0t1'
p1888
aS'a0t2'
p1889
aS'a0t3'
p1890
asg33
(dp1891
sg35
(dp1892
I0
g0
(g37
g2
Ntp1893
Rp1894
(dp1895
g41
(dp1896
g43
g0
(g44
g2
Ntp1897
Rp1898
(dp1899
g48
F1.0
sg49
F0.0
sg50
F0.01
sg51
I1
sbsg52
g0
(g44
g2
Ntp1900
Rp1901
(dp1902
g48
F1.0
sg49
F0.0
sg50
F0.02
sg51
I1
sbsg56
g0
(g44
g2
Ntp1903
Rp1904
(dp1905
g48
F1.0
sg49
F0.0
sg50
F0.0
sg51
I1
sbsg60
g0
(g44
g2
Ntp1906
Rp1907
(dp1908
g48
F1.0
sg49
F0.0
sg50
F0.2
sg51
I1
sbsg64
g0
(g44
g2
Ntp1909
Rp1910
(dp1911
g48
F1.0
sg49
F0.0
sg50
F0.02
sg51
I1
sbsg68
g0
(g44
g2
Ntp1912
Rp1913
(dp1914
g48
F1.0
sg49
F0.0
sg50
F0.0
sg51
I1
sbssg51
I0
sbssg72
I4
sg73
I1
sg74
I1
sg75
I515
sg76
I539
sg77
I1
sg78
Nsg79
(dp1915
I0
g0
(g81
g2
Ntp1916
Rp1917
(dp1918
g85
g86
sg87
F4.924273
sg88
F0.0
sg89
g90
sg51
I0
sbsI1
g0
(g81
g2
Ntp1919
Rp1920
(dp1921
g85
g86
sg87
F4.924273
sg88
F0.0
sg89
g90
sg51
I1
sbsI2
g0
(g81
g2
Ntp1922
Rp1923
(dp1924
g85
g86
sg87
F4.924273
sg88
F0.0
sg89
g90
sg51
I2
sbsI3
g0
(g81
g2
Ntp1925
Rp1926
(dp1927
g85
g86
sg87
F4.924273
sg88
F0.0
sg89
g90
sg51
I3
sbsI4
g0
(g81
g2
Ntp1928
Rp1929
(dp1930
g85
g86
sg87
F4.924273
sg88
F0.0
sg89
g90
sg51
I4
sbsI5
g0
(g81
g2
Ntp1931
Rp1932
(dp1933
g85
g106
sg87
F5.5403889091496215
sg88
F-0.4684987555700647
sg89
g107
sg51
I5
sbsI6
g0
(g81
g2
Ntp1934
Rp1935
(dp1936
g85
g106
sg87
F3.083256564474454
sg88
F-0.07989132051566561
sg89
g107
sg51
I6
sbsI7
g0
(g81
g2
Ntp1937
Rp1938
(dp1939
g85
g106
sg87
F4.7728860948957275
sg88
F-0.5074428152877087
sg89
g107
sg51
I7
sbsI8
g0
(g81
g2
Ntp1940
Rp1941
(dp1942
g85
g106
sg87
F2.629789602518031
sg88
F0.29659095565011756
sg89
g107
sg51
I8
sbsI9
g0
(g81
g2
Ntp1943
Rp1944
(dp1945
g85
g106
sg87
F5.843650012782072
sg88
F-0.6007584282569541
sg89
g852
sg51
I9
sbssg117
(dp1946
(I3
I5
tp1947
g0
(g120
g2
Ntp1948
Rp1949
(dp1950
g124
I01
sg125
F0.13871488621380318
sg126
I5
sg127
I3
sg128
I12
sbs(I3
I6
tp1951
g0
(g120
g2
Ntp1952
Rp1953
(dp1954
g124
I01
sg125
F0.6129624452814064
sg126
I6
sg127
I3
sg128
I13
sbs(I3
I7
tp1955
g0
(g120
g2
Ntp1956
Rp1957
(dp1958
g124
I00
sg125
F1.3295193610286968
sg126
I7
sg127
I3
sg128
I14
sbs(I3
I8
tp1959
g0
(g120
g2
Ntp1960
Rp1961
(dp1962
g124
I01
sg125
F1.2111137543201482
sg126
I8
sg127
I3
sg128
I15
sbs(I3
I9
tp1963
g0
(g120
g2
Ntp1964
Rp1965
(dp1966
g124
I01
sg125
F0.34117658328055533
sg126
I9
sg127
I3
sg128
I20
sbs(I9
I7
tp1967
g0
(g120
g2
Ntp1968
Rp1969
(dp1970
g124
I01
sg125
F1.7239437963099944
sg126
I7
sg127
I9
sg128
I21
sbssg141
I4
sg142
I5
sg143
g146
sg51
I562
sbag0
(g16
g2
Ntp1971
Rp1972
(dp1973
g20
(lp1974
g22
ag23
aS'a0'
p1975
aS'h0'
p1976
asg26
(lp1977
g28
aS'a0t0'
p1978
aS'a0t1'
p1979
aS'a0t2'
p1980
aS'a0t3'
p1981
asg33
(dp1982
sg35
(dp1983
I0
g0
(g37
g2
Ntp1984
Rp1985
(dp1986
g41
(dp1987
g43
g0
(g44
g2
Ntp1988
Rp1989
(dp1990
g48
F1.0
sg49
F0.0
sg50
F0.01
sg51
I1
sbsg52
g0
(g44
g2
Ntp1991
Rp1992
(dp1993
g48
F1.0
sg49
F0.0
sg50
F0.02
sg51
I1
sbsg56
g0
(g44
g2
Ntp1994
Rp1995
(dp1996
g48
F1.0
sg49
F0.0
sg50
F0.0
sg51
I1
sbsg60
g0
(g44
g2
Ntp1997
Rp1998
(dp1999
g48
F1.0
sg49
F0.0
sg50
F0.2
sg51
I1
sbsg64
g0
(g44
g2
Ntp2000
Rp2001
(dp2002
g48
F1.0
sg49
F0.0
sg50
F0.02
sg51
I1
sbsg68
g0
(g44
g2
Ntp2003
Rp2004
(dp2005
g48
F1.0
sg49
F0.0
sg50
F0.0
sg51
I1
sbssg51
I0
sbssg72
I4
sg73
I1
sg74
I1
sg75
I443
sg76
I515
sg77
I1
sg78
Nsg79
(dp2006
I0
g0
(g81
g2
Ntp2007
Rp2008
(dp2009
g85
g86
sg87
F4.924273
sg88
F0.0
sg89
g90
sg51
I0
sbsI1
g0
(g81
g2
Ntp2010
Rp2011
(dp2012
g85
g86
sg87
F4.924273
sg88
F0.0
sg89
g90
sg51
I1
sbsI2
g0
(g81
g2
Ntp2013
Rp2014
(dp2015
g85
g86
sg87
F4.924273
sg88
F0.0
sg89
g90
sg51
I2
sbsI3
g0
(g81
g2
Ntp2016
Rp2017
(dp2018
g85
g86
sg87
F4.924273
sg88
F0.0
sg89
g90
sg51
I3
sbsI4
g0
(g81
g2
Ntp2019
Rp2020
(dp2021
g85
g86
sg87
F4.924273
sg88
F0.0
sg89
g90
sg51
I4
sbsI5
g0
(g81
g2
Ntp2022
Rp2023
(dp2024
g85
g106
sg87
F3.41662133201112
sg88
F0.6502108184966402
sg89
g107
sg51
I5
sbsI6
g0
(g81
g2
Ntp2025
Rp2026
(dp2027
g85
g106
sg87
F2.5231886263570718
sg88
F-0.9444935576765959
sg89
g107
sg51
I6
sbsI7
g0
(g81
g2
Ntp2028
Rp2029
(dp2030
g85
g106
sg87
F3.5631289481041413
sg88
F0.48665090068953987
sg89
g107
sg51
I7
sbsI8
g0
(g81
g2
Ntp2031
Rp2032
(dp2033
g85
g106
sg87
F2.6833754799841945
sg88
F0.47007668890137444
sg89
g107
sg51
I8
sbssg117
(dp2034
(I3
I5
tp2035
g0
(g120
g2
Ntp2036
Rp2037
(dp2038
g124
I01
sg125
F1.3985359999397888
sg126
I5
sg127
I3
sg128
I12
sbs(I3
I6
tp2039
g0
(g120
g2
Ntp2040
Rp2041
(dp2042
g124
I01
sg125
F0.944888922781338
sg126
I6
sg127
I3
sg128
I13
sbs(I3
I7
tp2043
g0
(g120
g2
Ntp2044
Rp2045
(dp2046
g124
I01
sg125
F0.5529041803602641
sg126
I7
sg127
I3
sg128
I14
sbs(I3
I8
tp2047
g0
(g120
g2
Ntp2048
Rp2049
(dp2050
g124
I01
sg125
F0.5507246472520055
sg126
I8
sg127
I3
sg128
I15
sbs(I4
I6
tp2051
g0
(g120
g2
Ntp2052
Rp2053
(dp2054
g124
I00
sg125
F0.06578528590087374
sg126
I6
sg127
I4
sg128
I1
sbssg141
I4
sg142
I5
sg143
g146
sg51
I563
sbag0
(g16
g2
Ntp2055
Rp2056
(dp2057
g20
(lp2058
g22
ag23
aS'a0'
p2059
aS'h0'
p2060
asg26
(lp2061
g28
aS'a0t0'
p2062
aS'a0t1'
p2063
aS'a0t2'
p2064
aS'a0t3'
p2065
asg33
(dp2066
sg35
(dp2067
I0
g0
(g37
g2
Ntp2068
Rp2069
(dp2070
g41
(dp2071
g43
g0
(g44
g2
Ntp2072
Rp2073
(dp2074
g48
F1.0
sg49
F0.0
sg50
F0.01
sg51
I1
sbsg52
g0
(g44
g2
Ntp2075
Rp2076
(dp2077
g48
F1.0
sg49
F0.0
sg50
F0.02
sg51
I1
sbsg56
g0
(g44
g2
Ntp2078
Rp2079
(dp2080
g48
F1.0
sg49
F0.0
sg50
F0.0
sg51
I1
sbsg60
g0
(g44
g2
Ntp2081
Rp2082
(dp2083
g48
F1.0
sg49
F0.0
sg50
F0.2
sg51
I1
sbsg64
g0
(g44
g2
Ntp2084
Rp2085
(dp2086
g48
F1.0
sg49
F0.0
sg50
F0.02
sg51
I1
sbsg68
g0
(g44
g2
Ntp2087
Rp2088
(dp2089
g48
F1.0
sg49
F0.0
sg50
F0.0
sg51
I1
sbssg51
I0
sbssg72
I4
sg73
I1
sg74
I1
sg75
I468
sg76
I443
sg77
I1
sg78
Nsg79
(dp2090
I0
g0
(g81
g2
Ntp2091
Rp2092
(dp2093
g85
g86
sg87
F4.924273
sg88
F0.0
sg89
g90
sg51
I0
sbsI1
g0
(g81
g2
Ntp2094
Rp2095
(dp2096
g85
g86
sg87
F4.924273
sg88
F0.0
sg89
g90
sg51
I1
sbsI2
g0
(g81
g2
Ntp2097
Rp2098
(dp2099
g85
g86
sg87
F4.924273
sg88
F0.0
sg89
g90
sg51
I2
sbsI3
g0
(g81
g2
Ntp2100
Rp2101
(dp2102
g85
g86
sg87
F4.924273
sg88
F0.0
sg89
g90
sg51
I3
sbsI4
g0
(g81
g2
Ntp2103
Rp2104
(dp2105
g85
g86
sg87
F4.924273
sg88
F0.0
sg89
g90
sg51
I4
sbsI5
g0
(g81
g2
Ntp2106
Rp2107
(dp2108
g85
g106
sg87
F2.210458012940115
sg88
F0.8494464283868528
sg89
g107
sg51
I5
sbsI6
g0
(g81
g2
Ntp2109
Rp2110
(dp2111
g85
g106
sg87
F2.6074843851467184
sg88
F-0.8166872696201039
sg89
g107
sg51
I6
sbsI7
g0
(g81
g2
Ntp2112
Rp2113
(dp2114
g85
g106
sg87
F3.7453361012652335
sg88
F-0.192236660337454
sg89
g107
sg51
I7
sbsI8
g0
(g81
g2
Ntp2115
Rp2116
(dp2117
g85
g106
sg87
F3.669335193437401
sg88
F0.11416465297235867
sg89
g107
sg51
I8
sbssg117
(dp2118
(I3
I5
tp2119
g0
(g120
g2
Ntp2120
Rp2121
(dp2122
g124
I01
sg125
F-1.0262910691902263
sg126
I5
sg127
I3
sg128
I12
sbs(I3
I6
tp2123
g0
(g120
g2
Ntp2124
Rp2125
(dp2126
g124
I01
sg125
F2.610680114030397
sg126
I6
sg127
I3
sg128
I13
sbs(I3
I7
tp2127
g0
(g120
g2
Ntp2128
Rp2129
(dp2130
g124
I01
sg125
F0.1509506000539363
sg126
I7
sg127
I3
sg128
I14
sbs(I3
I8
tp2131
g0
(g120
g2
Ntp2132
Rp2133
(dp2134
g124
I01
sg125
F0.5507246472520055
sg126
I8
sg127
I3
sg128
I15
sbssg141
I4
sg142
I5
sg143
g146
sg51
I564
sbag0
(g16
g2
Ntp2135
Rp2136
(dp2137
g20
(lp2138
g22
ag23
aS'a0'
p2139
aS'h0'
p2140
asg26
(lp2141
g28
aS'a0t0'
p2142
aS'a0t1'
p2143
aS'a0t2'
p2144
aS'a0t3'
p2145
asg33
(dp2146
sg35
(dp2147
I0
g0
(g37
g2
Ntp2148
Rp2149
(dp2150
g41
(dp2151
g43
g0
(g44
g2
Ntp2152
Rp2153
(dp2154
g48
F1.0
sg49
F0.0
sg50
F0.01
sg51
I1
sbsg52
g0
(g44
g2
Ntp2155
Rp2156
(dp2157
g48
F1.0
sg49
F0.0
sg50
F0.02
sg51
I1
sbsg56
g0
(g44
g2
Ntp2158
Rp2159
(dp2160
g48
F1.0
sg49
F0.0
sg50
F0.0
sg51
I1
sbsg60
g0
(g44
g2
Ntp2161
Rp2162
(dp2163
g48
F1.0
sg49
F0.0
sg50
F0.2
sg51
I1
sbsg64
g0
(g44
g2
Ntp2164
Rp2165
(dp2166
g48
F1.0
sg49
F0.0
sg50
F0.02
sg51
I1
sbsg68
g0
(g44
g2
Ntp2167
Rp2168
(dp2169
g48
F1.0
sg49
F0.0
sg50
F0.0
sg51
I1
sbssg51
I0
sbssg72
I4
sg73
I1
sg74
I1
sg75
I539
sg76
I443
sg77
I1
sg78
Nsg79
(dp2170
I0
g0
(g81
g2
Ntp2171
Rp2172
(dp2173
g85
g86
sg87
F4.924273
sg88
F0.0
sg89
g90
sg51
I0
sbsI1
g0
(g81
g2
Ntp2174
Rp2175
(dp2176
g85
g86
sg87
F4.924273
sg88
F0.0
sg89
g90
sg51
I1
sbsI2
g0
(g81
g2
Ntp2177
Rp2178
(dp2179
g85
g86
sg87
F4.924273
sg88
F0.0
sg89
g90
sg51
I2
sbsI3
g0
(g81
g2
Ntp2180
Rp2181
(dp2182
g85
g86
sg87
F4.924273
sg88
F0.0
sg89
g90
sg51
I3
sbsI4
g0
(g81
g2
Ntp2183
Rp2184
(dp2185
g85
g86
sg87
F4.924273
sg88
F0.0
sg89
g90
sg51
I4
sbsI5
g0
(g81
g2
Ntp2186
Rp2187
(dp2188
g85
g106
sg87
F6.421561674128053
sg88
F1.1104667573723512
sg89
g107
sg51
I5
sbsI6
g0
(g81
g2
Ntp2189
Rp2190
(dp2191
g85
g106
sg87
F4.105879075043632
sg88
F0.11987005182327146
sg89
g107
sg51
I6
sbsI7
g0
(g81
g2
Ntp2192
Rp2193
(dp2194
g85
g106
sg87
F4.579523911377881
sg88
F-0.9257908631212284
sg89
g107
sg51
I7
sbsI8
g0
(g81
g2
Ntp2195
Rp2196
(dp2197
g85
g106
sg87
F2.9829841994366344
sg88
F0.29659095565011756
sg89
g107
sg51
I8
sbssg117
(dp2198
(I3
I5
tp2199
g0
(g120
g2
Ntp2200
Rp2201
(dp2202
g124
I01
sg125
F-1.1180717777161002
sg126
I5
sg127
I3
sg128
I12
sbs(I3
I6
tp2203
g0
(g120
g2
Ntp2204
Rp2205
(dp2206
g124
I01
sg125
F1.3191864138275922
sg126
I6
sg127
I3
sg128
I13
sbs(I3
I7
tp2207
g0
(g120
g2
Ntp2208
Rp2209
(dp2210
g124
I01
sg125
F0.6539710799264289
sg126
I7
sg127
I3
sg128
I14
sbs(I3
I8
tp2211
g0
(g120
g2
Ntp2212
Rp2213
(dp2214
g124
I01
sg125
F1.7093591623955287
sg126
I8
sg127
I3
sg128
I15
sbs(I5
I5
tp2215
g0
(g120
g2
Ntp2216
Rp2217
(dp2218
g124
I00
sg125
F-1.9926177358450332
sg126
I5
sg127
I5
sg128
I44
sbssg141
I4
sg142
I5
sg143
g146
sg51
I565
sbag0
(g16
g2
Ntp2219
Rp2220
(dp2221
g20
(lp2222
g22
ag23
aS'a0'
p2223
aS'h0'
p2224
asg26
(lp2225
g28
aS'a0t0'
p2226
aS'a0t1'
p2227
aS'a0t2'
p2228
aS'a0t3'
p2229
asg33
(dp2230
sg35
(dp2231
I0
g0
(g37
g2
Ntp2232
Rp2233
(dp2234
g41
(dp2235
g43
g0
(g44
g2
Ntp2236
Rp2237
(dp2238
g48
F1.0
sg49
F0.0
sg50
F0.01
sg51
I1
sbsg52
g0
(g44
g2
Ntp2239
Rp2240
(dp2241
g48
F1.0
sg49
F0.0
sg50
F0.02
sg51
I1
sbsg56
g0
(g44
g2
Ntp2242
Rp2243
(dp2244
g48
F1.0
sg49
F0.0
sg50
F0.0
sg51
I1
sbsg60
g0
(g44
g2
Ntp2245
Rp2246
(dp2247
g48
F1.0
sg49
F0.0
sg50
F0.2
sg51
I1
sbsg64
g0
(g44
g2
Ntp2248
Rp2249
(dp2250
g48
F1.0
sg49
F0.0
sg50
F0.02
sg51
I1
sbsg68
g0
(g44
g2
Ntp2251
Rp2252
(dp2253
g48
F1.0
sg49
F0.0
sg50
F0.0
sg51
I1
sbssg51
I0
sbssg72
I4
sg73
I1
sg74
I1
sg75
I496
sg76
I536
sg77
I1
sg78
Nsg79
(dp2254
I0
g0
(g81
g2
Ntp2255
Rp2256
(dp2257
g85
g86
sg87
F4.924273
sg88
F0.0
sg89
g90
sg51
I0
sbsI1
g0
(g81
g2
Ntp2258
Rp2259
(dp2260
g85
g86
sg87
F4.924273
sg88
F0.0
sg89
g90
sg51
I1
sbsI2
g0
(g81
g2
Ntp2261
Rp2262
(dp2263
g85
g86
sg87
F4.924273
sg88
F0.0
sg89
g90
sg51
I2
sbsI3
g0
(g81
g2
Ntp2264
Rp2265
(dp2266
g85
g86
sg87
F4.924273
sg88
F0.0
sg89
g90
sg51
I3
sbsI4
g0
(g81
g2
Ntp2267
Rp2268
(dp2269
g85
g86
sg87
F4.924273
sg88
F0.0
sg89
g90
sg51
I4
sbsI5
g0
(g81
g2
Ntp2270
Rp2271
(dp2272
g85
g106
sg87
F6.457705359583908
sg88
F-0.569765130278559
sg89
g107
sg51
I5
sbsI6
g0
(g81
g2
Ntp2273
Rp2274
(dp2275
g85
g106
sg87
F2.370494097684868
sg88
F-1.0410560639003044
sg89
g107
sg51
I6
sbsI7
g0
(g81
g2
Ntp2276
Rp2277
(dp2278
g85
g106
sg87
F4.6694660689001735
sg88
F-0.192236660337454
sg89
g107
sg51
I7
sbsI8
g0
(g81
g2
Ntp2279
Rp2280
(dp2281
g85
g106
sg87
F3.733156273937065
sg88
F-0.22527850725966972
sg89
g107
sg51
I8
sbssg117
(dp2282
(I3
I5
tp2283
g0
(g120
g2
Ntp2284
Rp2285
(dp2286
g124
I01
sg125
F-2.021344717378962
sg126
I5
sg127
I3
sg128
I12
sbs(I3
I6
tp2287
g0
(g120
g2
Ntp2288
Rp2289
(dp2290
g124
I01
sg125
F-0.21936108898250772
sg126
I6
sg127
I3
sg128
I13
sbs(I3
I7
tp2291
g0
(g120
g2
Ntp2292
Rp2293
(dp2294
g124
I01
sg125
F-1.9279929201086483
sg126
I7
sg127
I3
sg128
I14
sbs(I3
I8
tp2295
g0
(g120
g2
Ntp2296
Rp2297
(dp2298
g124
I01
sg125
F-0.1475995429130907
sg126
I8
sg127
I3
sg128
I15
sbssg141
I4
sg142
I5
sg143
g146
sg51
I566
sbag0
(g16
g2
Ntp2299
Rp2300
(dp2301
g20
(lp2302
g22
ag23
aS'a0'
p2303
aS'h0'
p2304
asg26
(lp2305
g28
aS'a0t0'
p2306
aS'a0t1'
p2307
aS'a0t2'
p2308
aS'a0t3'
p2309
asg33
(dp2310
sg35
(dp2311
I0
g0
(g37
g2
Ntp2312
Rp2313
(dp2314
g41
(dp2315
g43
g0
(g44
g2
Ntp2316
Rp2317
(dp2318
g48
F1.0
sg49
F0.0
sg50
F0.01
sg51
I1
sbsg52
g0
(g44
g2
Ntp2319
Rp2320
(dp2321
g48
F1.0
sg49
F0.0
sg50
F0.02
sg51
I1
sbsg56
g0
(g44
g2
Ntp2322
Rp2323
(dp2324
g48
F1.0
sg49
F0.0
sg50
F0.0
sg51
I1
sbsg60
g0
(g44
g2
Ntp2325
Rp2326
(dp2327
g48
F1.0
sg49
F0.0
sg50
F0.2
sg51
I1
sbsg64
g0
(g44
g2
Ntp2328
Rp2329
(dp2330
g48
F1.0
sg49
F0.0
sg50
F0.02
sg51
I1
sbsg68
g0
(g44
g2
Ntp2331
Rp2332
(dp2333
g48
F1.0
sg49
F0.0
sg50
F0.0
sg51
I1
sbssg51
I0
sbssg72
I4
sg73
I1
sg74
I1
sg75
I539
sg76
I496
sg77
I1
sg78
Nsg79
(dp2334
I0
g0
(g81
g2
Ntp2335
Rp2336
(dp2337
g85
g86
sg87
F4.924273
sg88
F0.0
sg89
g90
sg51
I0
sbsI1
g0
(g81
g2
Ntp2338
Rp2339
(dp2340
g85
g86
sg87
F4.924273
sg88
F0.0
sg89
g90
sg51
I1
sbsI2
g0
(g81
g2
Ntp2341
Rp2342
(dp2343
g85
g86
sg87
F4.924273
sg88
F0.0
sg89
g90
sg51
I2
sbsI3
g0
(g81
g2
Ntp2344
Rp2345
(dp2346
g85
g86
sg87
F4.924273
sg88
F0.0
sg89
g90
sg51
I3
sbsI4
g0
(g81
g2
Ntp2347
Rp2348
(dp2349
g85
g86
sg87
F4.924273
sg88
F0.0
sg89
g90
sg51
I4
sbsI5
g0
(g81
g2
Ntp2350
Rp2351
(dp2352
g85
g106
sg87
F5.654397442095511
sg88
F-0.06473548291043307
sg89
g107
sg51
I5
sbsI6
g0
(g81
g2
Ntp2353
Rp2354
(dp2355
g85
g106
sg87
F3.635919234254424
sg88
F-0.19768665931442975
sg89
g107
sg51
I6
sbsI7
g0
(g81
g2
Ntp2356
Rp2357
(dp2358
g85
g106
sg87
F4.705820342028078
sg88
F0.05552468039270175
sg89
g107
sg51
I7
sbsI8
g0
(g81
g2
Ntp2359
Rp2360
(dp2361
g85
g106
sg87
F3.5460968462389943
sg88
F-0.7947882043606918
sg89
g107
sg51
I8
sbssg117
(dp2362
(I3
I5
tp2363
g0
(g120
g2
Ntp2364
Rp2365
(dp2366
g124
I01
sg125
F1.844984667119362
sg126
I5
sg127
I3
sg128
I12
sbs(I3
I6
tp2367
g0
(g120
g2
Ntp2368
Rp2369
(dp2370
g124
I01
sg125
F1.9032212726822666
sg126
I6
sg127
I3
sg128
I13
sbs(I3
I7
tp2371
g0
(g120
g2
Ntp2372
Rp2373
(dp2374
g124
I01
sg125
F0.9427121427642282
sg126
I7
sg127
I3
sg128
I14
sbs(I3
I8
tp2375
g0
(g120
g2
Ntp2376
Rp2377
(dp2378
g124
I01
sg125
F0.9557365612509234
sg126
I8
sg127
I3
sg128
I15
sbs(I5
I5
tp2379
g0
(g120
g2
Ntp2380
Rp2381
(dp2382
g124
I00
sg125
F-1.7343594539231668
sg126
I5
sg127
I5
sg128
I44
sbssg141
I4
sg142
I5
sg143
g146
sg51
I567
sbag0
(g16
g2
Ntp2383
Rp2384
(dp2385
g20
(lp2386
g22
ag23
aS'a0'
p2387
aS'h0'
p2388
asg26
(lp2389
g28
aS'a0t0'
p2390
aS'a0t1'
p2391
aS'a0t2'
p2392
aS'a0t3'
p2393
asg33
(dp2394
sg35
(dp2395
I0
g0
(g37
g2
Ntp2396
Rp2397
(dp2398
g41
(dp2399
g43
g0
(g44
g2
Ntp2400
Rp2401
(dp2402
g48
F1.0
sg49
F0.0
sg50
F0.01
sg51
I1
sbsg52
g0
(g44
g2
Ntp2403
Rp2404
(dp2405
g48
F1.0
sg49
F0.0
sg50
F0.02
sg51
I1
sbsg56
g0
(g44
g2
Ntp2406
Rp2407
(dp2408
g48
F1.0
sg49
F0.0
sg50
F0.0
sg51
I1
sbsg60
g0
(g44
g2
Ntp2409
Rp2410
(dp2411
g48
F1.0
sg49
F0.0
sg50
F0.2
sg51
I1
sbsg64
g0
(g44
g2
Ntp2412
Rp2413
(dp2414
g48
F1.0
sg49
F0.0
sg50
F0.02
sg51
I1
sbsg68
g0
(g44
g2
Ntp2415
Rp2416
(dp2417
g48
F1.0
sg49
F0.0
sg50
F0.0
sg51
I1
sbssg51
I0
sbssg72
I4
sg73
I1
sg74
I1
sg75
I539
sg76
I496
sg77
I1
sg78
Nsg79
(dp2418
I0
g0
(g81
g2
Ntp2419
Rp2420
(dp2421
g85
g86
sg87
F4.924273
sg88
F0.0
sg89
g90
sg51
I0
sbsI1
g0
(g81
g2
Ntp2422
Rp2423
(dp2424
g85
g86
sg87
F4.924273
sg88
F0.0
sg89
g90
sg51
I1
sbsI2
g0
(g81
g2
Ntp2425
Rp2426
(dp2427
g85
g86
sg87
F4.924273
sg88
F0.0
sg89
g90
sg51
I2
sbsI3
g0
(g81
g2
Ntp2428
Rp2429
(dp2430
g85
g86
sg87
F4.924273
sg88
F0.0
sg89
g90
sg51
I3
sbsI4
g0
(g81
g2
Ntp2431
Rp2432
(dp2433
g85
g86
sg87
F4.924273
sg88
F0.0
sg89
g90
sg51
I4
sbsI5
g0
(g81
g2
Ntp2434
Rp2435
(dp2436
g85
g106
sg87
F6.434611709504321
sg88
F-0.631984063952349
sg89
g107
sg51
I5
sbsI6
g0
(g81
g2
Ntp2437
Rp2438
(dp2439
g85
g106
sg87
F3.27770173422365
sg88
F-0.49333393765693684
sg89
g107
sg51
I6
sbsI7
g0
(g81
g2
Ntp2440
Rp2441
(dp2442
g85
g106
sg87
F4.748797332625154
sg88
F-0.4574233033281636
sg89
g107
sg51
I7
sbsI8
g0
(g81
g2
Ntp2443
Rp2444
(dp2445
g85
g106
sg87
F2.727898988327419
sg88
F-0.1575965510121986
sg89
g107
sg51
I8
sbssg117
(dp2446
(I3
I5
tp2447
g0
(g120
g2
Ntp2448
Rp2449
(dp2450
g124
I01
sg125
F-0.9156713389688489
sg126
I5
sg127
I3
sg128
I12
sbs(I3
I6
tp2451
g0
(g120
g2
Ntp2452
Rp2453
(dp2454
g124
I01
sg125
F1.0893862540698287
sg126
I6
sg127
I3
sg128
I13
sbs(I3
I7
tp2455
g0
(g120
g2
Ntp2456
Rp2457
(dp2458
g124
I01
sg125
F0.8977466119841504
sg126
I7
sg127
I3
sg128
I14
sbs(I3
I8
tp2459
g0
(g120
g2
Ntp2460
Rp2461
(dp2462
g124
I01
sg125
F0.9083566884850783
sg126
I8
sg127
I3
sg128
I15
sbs(I5
I5
tp2463
g0
(g120
g2
Ntp2464
Rp2465
(dp2466
g124
I00
sg125
F-1.9146918839600002
sg126
I5
sg127
I5
sg128
I44
sbssg141
I4
sg142
I5
sg143
g146
sg51
I568
sbag0
(g16
g2
Ntp2467
Rp2468
(dp2469
g20
(lp2470
g22
ag23
aS'a0'
p2471
aS'h0'
p2472
asg26
(lp2473
g28
aS'a0t0'
p2474
aS'a0t1'
p2475
aS'a0t2'
p2476
aS'a0t3'
p2477
asg33
(dp2478
sg35
(dp2479
I0
g0
(g37
g2
Ntp2480
Rp2481
(dp2482
g41
(dp2483
g43
g0
(g44
g2
Ntp2484
Rp2485
(dp2486
g48
F1.0
sg49
F0.0
sg50
F0.01
sg51
I1
sbsg52
g0
(g44
g2
Ntp2487
Rp2488
(dp2489
g48
F1.0
sg49
F0.0
sg50
F0.02
sg51
I1
sbsg56
g0
(g44
g2
Ntp2490
Rp2491
(dp2492
g48
F1.0
sg49
F0.0
sg50
F0.0
sg51
I1
sbsg60
g0
(g44
g2
Ntp2493
Rp2494
(dp2495
g48
F1.0
sg49
F0.0
sg50
F0.2
sg51
I1
sbsg64
g0
(g44
g2
Ntp2496
Rp2497
(dp2498
g48
F1.0
sg49
F0.0
sg50
F0.02
sg51
I1
sbsg68
g0
(g44
g2
Ntp2499
Rp2500
(dp2501
g48
F1.0
sg49
F0.0
sg50
F0.0
sg51
I1
sbssg51
I0
sbssg72
I4
sg73
I1
sg74
I1
sg75
I496
sg76
I536
sg77
I1
sg78
Nsg79
(dp2502
I0
g0
(g81
g2
Ntp2503
Rp2504
(dp2505
g85
g86
sg87
F4.924273
sg88
F0.0
sg89
g90
sg51
I0
sbsI1
g0
(g81
g2
Ntp2506
Rp2507
(dp2508
g85
g86
sg87
F4.924273
sg88
F0.0
sg89
g90
sg51
I1
sbsI2
g0
(g81
g2
Ntp2509
Rp2510
(dp2511
g85
g86
sg87
F4.924273
sg88
F0.0
sg89
g90
sg51
I2
sbsI3
g0
(g81
g2
Ntp2512
Rp2513
(dp2514
g85
g86
sg87
F4.924273
sg88
F0.0
sg89
g90
sg51
I3
sbsI4
g0
(g81
g2
Ntp2515
Rp2516
(dp2517
g85
g86
sg87
F4.924273
sg88
F0.0
sg89
g90
sg51
I4
sbsI5
g0
(g81
g2
Ntp2518
Rp2519
(dp2520
g85
g106
sg87
F5.491864524129199
sg88
F0.7823467848736867
sg89
g107
sg51
I5
sbsI6
g0
(g81
g2
Ntp2521
Rp2522
(dp2523
g85
g106
sg87
F3.13633796458089
sg88
F-0.17882787337350803
sg89
g107
sg51
I6
sbsI7
g0
(g81
g2
Ntp2524
Rp2525
(dp2526
g85
g106
sg87
F5.425576673259613
sg88
F-0.1520451559997664
sg89
g107
sg51
I7
sbsI8
g0
(g81
g2
Ntp2527
Rp2528
(dp2529
g85
g106
sg87
F4.060601146807519
sg88
F-0.24905941830202694
sg89
g107
sg51
I8
sbssg117
(dp2530
(I3
I5
tp2531
g0
(g120
g2
Ntp2532
Rp2533
(dp2534
g124
I01
sg125
F-1.2722864518305084
sg126
I5
sg127
I3
sg128
I12
sbs(I3
I6
tp2535
g0
(g120
g2
Ntp2536
Rp2537
(dp2538
g124
I01
sg125
F2.0786563138876475
sg126
I6
sg127
I3
sg128
I13
sbs(I3
I7
tp2539
g0
(g120
g2
Ntp2540
Rp2541
(dp2542
g124
I01
sg125
F1.6435093323068273
sg126
I7
sg127
I3
sg128
I14
sbs(I3
I8
tp2543
g0
(g120
g2
Ntp2544
Rp2545
(dp2546
g124
I01
sg125
F2.4233149373693
sg126
I8
sg127
I3
sg128
I15
sbssg141
I4
sg142
I5
sg143
g146
sg51
I569
sbag0
(g16
g2
Ntp2547
Rp2548
(dp2549
g20
(lp2550
g22
ag23
aS'a0'
p2551
aS'h0'
p2552
asg26
(lp2553
g28
aS'a0t0'
p2554
aS'a0t1'
p2555
aS'a0t2'
p2556
aS'a0t3'
p2557
asg33
(dp2558
sg35
(dp2559
I0
g0
(g37
g2
Ntp2560
Rp2561
(dp2562
g41
(dp2563
g43
g0
(g44
g2
Ntp2564
Rp2565
(dp2566
g48
F1.0
sg49
F0.0
sg50
F0.01
sg51
I1
sbsg52
g0
(g44
g2
Ntp2567
Rp2568
(dp2569
g48
F1.0
sg49
F0.0
sg50
F0.02
sg51
I1
sbsg56
g0
(g44
g2
Ntp2570
Rp2571
(dp2572
g48
F1.0
sg49
F0.0
sg50
F0.0
sg51
I1
sbsg60
g0
(g44
g2
Ntp2573
Rp2574
(dp2575
g48
F1.0
sg49
F0.0
sg50
F0.2
sg51
I1
sbsg64
g0
(g44
g2
Ntp2576
Rp2577
(dp2578
g48
F1.0
sg49
F0.0
sg50
F0.02
sg51
I1
sbsg68
g0
(g44
g2
Ntp2579
Rp2580
(dp2581
g48
F1.0
sg49
F0.0
sg50
F0.0
sg51
I1
sbssg51
I0
sbssg72
I4
sg73
I1
sg74
I1
sg75
I536
sg76
I496
sg77
I1
sg78
Nsg79
(dp2582
I0
g0
(g81
g2
Ntp2583
Rp2584
(dp2585
g85
g86
sg87
F4.924273
sg88
F0.0
sg89
g90
sg51
I0
sbsI1
g0
(g81
g2
Ntp2586
Rp2587
(dp2588
g85
g86
sg87
F4.924273
sg88
F0.0
sg89
g90
sg51
I1
sbsI2
g0
(g81
g2
Ntp2589
Rp2590
(dp2591
g85
g86
sg87
F4.924273
sg88
F0.0
sg89
g90
sg51
I2
sbsI3
g0
(g81
g2
Ntp2592
Rp2593
(dp2594
g85
g86
sg87
F4.924273
sg88
F0.0
sg89
g90
sg51
I3
sbsI4
g0
(g81
g2
Ntp2595
Rp2596
(dp2597
g85
g86
sg87
F4.924273
sg88
F0.0
sg89
g90
sg51
I4
sbsI5
g0
(g81
g2
Ntp2598
Rp2599
(dp2600
g85
g106
sg87
F5.780092511391023
sg88
F-0.08221203686824613
sg89
g107
sg51
I5
sbsI6
g0
(g81
g2
Ntp2601
Rp2602
(dp2603
g85
g106
sg87
F2.6478782416296722
sg88
F0.32576978407560786
sg89
g107
sg51
I6
sbsI7
g0
(g81
g2
Ntp2604
Rp2605
(dp2606
g85
g106
sg87
F3.8816045900188563
sg88
F-0.5370159998168519
sg89
g107
sg51
I7
sbsI8
g0
(g81
g2
Ntp2607
Rp2608
(dp2609
g85
g106
sg87
F3.306348863735956
sg88
F-0.37892162602993334
sg89
g107
sg51
I8
sbssg117
(dp2610
(I3
I5
tp2611
g0
(g120
g2
Ntp2612
Rp2613
(dp2614
g124
I01
sg125
F-1.5895709740064325
sg126
I5
sg127
I3
sg128
I12
sbs(I3
I6
tp2615
g0
(g120
g2
Ntp2616
Rp2617
(dp2618
g124
I01
sg125
F1.87221100344337
sg126
I6
sg127
I3
sg128
I13
sbs(I3
I7
tp2619
g0
(g120
g2
Ntp2620
Rp2621
(dp2622
g124
I01
sg125
F0.33697151145309295
sg126
I7
sg127
I3
sg128
I14
sbs(I3
I8
tp2623
g0
(g120
g2
Ntp2624
Rp2625
(dp2626
g124
I01
sg125
F-0.04441672235438801
sg126
I8
sg127
I3
sg128
I15
sbssg141
I4
sg142
I5
sg143
g146
sg51
I570
sbag0
(g16
g2
Ntp2627
Rp2628
(dp2629
g20
(lp2630
g22
ag23
aS'a0'
p2631
aS'h0'
p2632
asg26
(lp2633
g28
aS'a0t0'
p2634
aS'a0t1'
p2635
aS'a0t2'
p2636
aS'a0t3'
p2637
asg33
(dp2638
sg35
(dp2639
I0
g0
(g37
g2
Ntp2640
Rp2641
(dp2642
g41
(dp2643
g43
g0
(g44
g2
Ntp2644
Rp2645
(dp2646
g48
F1.0
sg49
F0.0
sg50
F0.01
sg51
I1
sbsg52
g0
(g44
g2
Ntp2647
Rp2648
(dp2649
g48
F1.0
sg49
F0.0
sg50
F0.02
sg51
I1
sbsg56
g0
(g44
g2
Ntp2650
Rp2651
(dp2652
g48
F1.0
sg49
F0.0
sg50
F0.0
sg51
I1
sbsg60
g0
(g44
g2
Ntp2653
Rp2654
(dp2655
g48
F1.0
sg49
F0.0
sg50
F0.2
sg51
I1
sbsg64
g0
(g44
g2
Ntp2656
Rp2657
(dp2658
g48
F1.0
sg49
F0.0
sg50
F0.02
sg51
I1
sbsg68
g0
(g44
g2
Ntp2659
Rp2660
(dp2661
g48
F1.0
sg49
F0.0
sg50
F0.0
sg51
I1
sbssg51
I0
sbssg72
I4
sg73
I1
sg74
I1
sg75
I536
sg76
I536
sg77
I1
sg78
Nsg79
(dp2662
I0
g0
(g81
g2
Ntp2663
Rp2664
(dp2665
g85
g86
sg87
F4.924273
sg88
F0.0
sg89
g90
sg51
I0
sbsI1
g0
(g81
g2
Ntp2666
Rp2667
(dp2668
g85
g86
sg87
F4.924273
sg88
F0.0
sg89
g90
sg51
I1
sbsI2
g0
(g81
g2
Ntp2669
Rp2670
(dp2671
g85
g86
sg87
F4.924273
sg88
F0.0
sg89
g90
sg51
I2
sbsI3
g0
(g81
g2
Ntp2672
Rp2673
(dp2674
g85
g86
sg87
F4.924273
sg88
F0.0
sg89
g90
sg51
I3
sbsI4
g0
(g81
g2
Ntp2675
Rp2676
(dp2677
g85
g86
sg87
F4.924273
sg88
F0.0
sg89
g90
sg51
I4
sbsI5
g0
(g81
g2
Ntp2678
Rp2679
(dp2680
g85
g106
sg87
F6.0190177901965995
sg88
F0.3103967730655302
sg89
g107
sg51
I5
sbsI6
g0
(g81
g2
Ntp2681
Rp2682
(dp2683
g85
g106
sg87
F2.6781651429243043
sg88
F0.752805577892073
sg89
g107
sg51
I6
sbsI7
g0
(g81
g2
Ntp2684
Rp2685
(dp2686
g85
g106
sg87
F4.146304920439031
sg88
F0.3750885764005545
sg89
g107
sg51
I7
sbsI8
g0
(g81
g2
Ntp2687
Rp2688
(dp2689
g85
g106
sg87
F3.9704994873622104
sg88
F-0.5437450977808802
sg89
g107
sg51
I8
sbssg117
(dp2690
(I3
I5
tp2691
g0
(g120
g2
Ntp2692
Rp2693
(dp2694
g124
I01
sg125
F-0.2667720373178248
sg126
I5
sg127
I3
sg128
I12
sbs(I3
I6
tp2695
g0
(g120
g2
Ntp2696
Rp2697
(dp2698
g124
I01
sg125
F1.1529211849962908
sg126
I6
sg127
I3
sg128
I13
sbs(I3
I7
tp2699
g0
(g120
g2
Ntp2700
Rp2701
(dp2702
g124
I01
sg125
F0.8307138183998705
sg126
I7
sg127
I3
sg128
I14
sbs(I3
I8
tp2703
g0
(g120
g2
Ntp2704
Rp2705
(dp2706
g124
I01
sg125
F2.237317288792077
sg126
I8
sg127
I3
sg128
I15
sbssg141
I4
sg142
I5
sg143
g146
sg51
I571
sbag0
(g16
g2
Ntp2707
Rp2708
(dp2709
g20
(lp2710
g22
ag23
aS'a0'
p2711
aS'h0'
p2712
asg26
(lp2713
g28
aS'a0t0'
p2714
aS'a0t1'
p2715
aS'a0t2'
p2716
aS'a0t3'
p2717
asg33
(dp2718
sg35
(dp2719
I0
g0
(g37
g2
Ntp2720
Rp2721
(dp2722
g41
(dp2723
g43
g0
(g44
g2
Ntp2724
Rp2725
(dp2726
g48
F1.0
sg49
F0.0
sg50
F0.01
sg51
I1
sbsg52
g0
(g44
g2
Ntp2727
Rp2728
(dp2729
g48
F1.0
sg49
F0.0
sg50
F0.02
sg51
I1
sbsg56
g0
(g44
g2
Ntp2730
Rp2731
(dp2732
g48
F1.0
sg49
F0.0
sg50
F0.0
sg51
I1
sbsg60
g0
(g44
g2
Ntp2733
Rp2734
(dp2735
g48
F1.0
sg49
F0.0
sg50
F0.2
sg51
I1
sbsg64
g0
(g44
g2
Ntp2736
Rp2737
(dp2738
g48
F1.0
sg49
F0.0
sg50
F0.02
sg51
I1
sbsg68
g0
(g44
g2
Ntp2739
Rp2740
(dp2741
g48
F1.0
sg49
F0.0
sg50
F0.0
sg51
I1
sbssg51
I0
sbssg72
I4
sg73
I1
sg74
I1
sg75
I508
sg76
I536
sg77
I1
sg78
Nsg79
(dp2742
I0
g0
(g81
g2
Ntp2743
Rp2744
(dp2745
g85
g86
sg87
F4.924273
sg88
F0.0
sg89
g90
sg51
I0
sbsI1
g0
(g81
g2
Ntp2746
Rp2747
(dp2748
g85
g86
sg87
F4.924273
sg88
F0.0
sg89
g90
sg51
I1
sbsI2
g0
(g81
g2
Ntp2749
Rp2750
(dp2751
g85
g86
sg87
F4.924273
sg88
F0.0
sg89
g90
sg51
I2
sbsI3
g0
(g81
g2
Ntp2752
Rp2753
(dp2754
g85
g86
sg87
F4.924273
sg88
F0.0
sg89
g90
sg51
I3
sbsI4
g0
(g81
g2
Ntp2755
Rp2756
(dp2757
g85
g86
sg87
F4.924273
sg88
F0.0
sg89
g90
sg51
I4
sbsI5
g0
(g81
g2
Ntp2758
Rp2759
(dp2760
g85
g106
sg87
F6.011414418081282
sg88
F-0.042066418199323885
sg89
g107
sg51
I5
sbsI6
g0
(g81
g2
Ntp2761
Rp2762
(dp2763
g85
g106
sg87
F3.0578942839732486
sg88
F0.332141288171829
sg89
g107
sg51
I6
sbsI7
g0
(g81
g2
Ntp2764
Rp2765
(dp2766
g85
g106
sg87
F3.839791386243926
sg88
F0.7684981913558361
sg89
g107
sg51
I7
sbsI8
g0
(g81
g2
Ntp2767
Rp2768
(dp2769
g85
g106
sg87
F5.7025381313528225
sg88
F0.4632072598566345
sg89
g107
sg51
I8
sbssg117
(dp2770
(I3
I5
tp2771
g0
(g120
g2
Ntp2772
Rp2773
(dp2774
g124
I01
sg125
F-0.8842054302479264
sg126
I5
sg127
I3
sg128
I12
sbs(I3
I6
tp2775
g0
(g120
g2
Ntp2776
Rp2777
(dp2778
g124
I01
sg125
F-1.1199047772755526
sg126
I6
sg127
I3
sg128
I13
sbs(I3
I7
tp2779
g0
(g120
g2
Ntp2780
Rp2781
(dp2782
g124
I01
sg125
F-0.37426503980720083
sg126
I7
sg127
I3
sg128
I14
sbs(I3
I8
tp2783
g0
(g120
g2
Ntp2784
Rp2785
(dp2786
g124
I01
sg125
F1.6976763285753511
sg126
I8
sg127
I3
sg128
I15
sbssg141
I4
sg142
I5
sg143
g146
sg51
I572
sbasS'age'
p2787
I20
sg51
I1
sS'representative'
p2788
g2548
sbasS'reproduction'
p2789
g0
(g154
g2
Ntp2790
Rp2791
(dp2792
S'stagnation'
p2793
g0
(g156
g2
Ntp2794
Rp2795
(dp2796
S'stagnant_counts'
p2797
(dp2798
I1
I0
ssS'previous_fitnesses'
p2799
(dp2800
I1
F-69.3125
ssS'reporters'
p2801
g0
(cneat.reporting
ReporterSet
p2802
g2
Ntp2803
Rp2804
(dp2805
g2801
(lp2806
g0
(cneat.reporting
StatisticsReporter
p2807
g2
Ntp2808
Rp2809
(dp2810
S'generation_statistics'
p2811
(lp2812
(dp2813
I1
(lp2814
F-64.0
aF-64.0
aF-244.0
aF-213.5
aF-74.0
aF-64.0
aF-64.0
aF-244.0
aF-64.0
aF-64.0
aF-244.0
aF-64.0
aF-64.0
aF-64.0
aF-74.0
aF-74.0
aF-74.0
aF-64.0
aF-64.0
aF-64.0
aF-74.0
aF-64.0
aF-74.0
aF-204.0
aF-64.0
aF-64.0
aF-6.0
aF-74.0
aF-64.0
aF-64.0
aF-64.0
aF-64.0
asa(dp2815
I1
(lp2816
F-9.0
aF-64.0
aF-64.0
aF-64.0
aF-64.0
aF-64.0
aF-64.0
aF-26.0
aF-20.5
aF-64.0
aF-64.0
aF-11.0
aF-64.0
aF-11.0
aF-64.0
aF-64.0
aF-127.5
aF-64.0
aF-64.0
aF-64.0
aF-64.0
aF-64.0
aF-64.0
aF-143.5
aF-64.0
aF-64.0
aF-64.0
aF-74.0
aF-64.0
aF-64.0
aF-64.0
aF-64.0
asa(dp2817
I1
(lp2818
F-9.0
aF-18.0
aF-12.0
aF-26.5
aF-23.0
aF-23.0
aF-156.0
aF-16.5
aF-64.0
aF-40.0
aF-74.0
aF-219.0
aF-28.0
aF-64.0
aF-17.0
aF-64.0
aF-17.5
aF-64.0
aF-40.0
aF-125.5
aF-64.0
aF-64.0
aF-4.0
aF-5.0
aF-64.0
aF-25.0
aF-8.5
aF-64.0
aF-64.0
aF-74.0
aF-64.0
aF-20.5
asa(dp2819
I1
(lp2820
F-5.0
aF-3.0
aF-9.0
aF-10.5
aF-17.0
aF-244.0
aF-3.5
aF-16.0
aF-74.0
aF-64.0
aF-31.0
aF-64.0
aF-143.5
aF-64.0
aF-64.0
aF-64.0
aF-37.5
aF-16.0
aF-1.5
aF-64.0
aF-149.5
aF-39.5
aF-64.0
aF-1.0
aF-64.0
aF-64.0
aF-64.0
aF-64.0
aF-64.0
aF-6.5
aF-64.0
aF-64.0
asa(dp2821
I1
(lp2822
F-19.0
aF-9.0
aF-10.5
aF-6.0
aF-4.0
aF-4.0
aF-6.0
aF-64.0
aF-42.0
aF-18.5
aF-64.0
aF-5.5
aF-13.0
aF-74.0
aF-64.0
aF-64.0
aF-14.0
aF-64.0
aF-64.0
aF-64.0
aF-64.0
aF-13.5
aF-74.0
aF-17.0
aF-64.0
aF-8.5
aF-64.0
aF-128.5
aF-74.0
aF-64.0
aF-64.0
aF-3.0
asa(dp2823
I1
(lp2824
F-3.5
aF-7.0
aF0.5
aF-0.5
aF-2.0
aF-64.0
aF-64.0
aF-30.5
aF-129.0
aF-32.0
aF-64.0
aF-64.0
aF-64.0
aF-64.0
aF-143.0
aF-134.0
aF-74.0
aF-64.0
aF-9.0
aF-64.0
aF-125.5
aF-64.0
aF-6.0
aF-29.5
aF-9.0
aF-26.5
aF-64.0
aF-63.5
aF-64.0
aF-64.0
aF-64.0
aF-29.0
asa(dp2825
I1
(lp2826
F-2.0
aF-4.0
aF-0.5
aF-14.0
aF-1.0
aF-64.0
aF-9.0
aF-14.0
aF-64.0
aF-64.0
aF-134.0
aF-164.0
aF-182.0
aF-244.0
aF-1.5
aF-64.0
aF-64.0
aF-10.0
aF-64.0
aF-64.0
aF-244.0
aF-244.0
aF-29.0
aF0.0
aF-64.0
aF-64.0
aF-40.5
aF-64.0
aF-64.0
aF-229.0
aF-64.0
aF-64.0
asa(dp2827
I1
(lp2828
F-4.0
aF-3.5
aF-4.0
aF-6.0
aF-1.0
aF-2.0
aF-34.0
aF-64.0
aF-64.0
aF-28.5
aF-244.0
aF-29.0
aF-244.0
aF-3.5
aF-210.0
aF-64.0
aF-32.0
aF-64.0
aF-64.0
aF-19.5
aF-74.0
aF-64.0
aF-64.0
aF-64.0
aF-149.0
aF-64.0
aF-244.0
aF-35.5
aF-126.0
aF-2.0
aF-64.0
aF-7.0
asa(dp2829
I1
(lp2830
F-8.5
aF-4.0
aF-7.0
aF-6.0
aF-3.5
aF-74.0
aF-6.0
aF-12.0
aF-64.0
aF-64.0
aF-64.0
aF-16.0
aF-64.0
aF-64.0
aF-0.5
aF-64.0
aF-64.0
aF-64.0
aF-7.5
aF-2.5
aF-64.0
aF-244.0
aF-64.0
aF-121.0
aF-126.5
aF-64.0
aF-127.5
aF-64.0
aF-64.0
aF-2.5
aF-64.0
aF-33.0
asa(dp2831
I1
(lp2832
F-6.5
aF-10.0
aF-3.5
aF-0.5
aF-12.0
aF-210.5
aF-3.5
aF-15.5
aF-64.0
aF-64.0
aF-24.0
aF-244.0
aF-64.0
aF-10.5
aF-23.5
aF-64.0
aF-64.0
aF-74.0
aF-64.0
aF-11.5
aF-64.0
aF-64.0
aF-10.5
aF-64.0
aF-159.0
aF-64.0
aF-64.0
aF-5.0
aF-64.0
aF-64.0
aF-64.0
aF-64.0
asa(dp2833
I1
(lp2834
F-3.5
aF-4.0
aF-10.0
aF-7.0
aF-8.5
aF-64.0
aF-64.0
aF-244.0
aF-64.0
aF-64.0
aF-64.0
aF-64.0
aF-157.0
aF-64.0
aF-15.0
aF-4.0
aF-37.0
aF-64.0
aF-64.0
aF-8.0
aF-14.0
aF-244.0
aF-64.0
aF-129.5
aF-244.0
aF-10.0
aF-23.0
aF-167.0
aF-244.0
aF-34.0
aF-64.0
aF-64.0
asa(dp2835
I1
(lp2836
F-18.5
aF-7.5
aF-4.0
aF-5.5
aF-15.0
aF-4.0
aF-64.0
aF-17.5
aF-67.5
aF-64.0
aF-64.0
aF-10.5
aF-64.0
aF-64.0
aF-140.0
aF-64.0
aF-64.0
aF-160.5
aF-74.0
aF-15.5
aF-64.0
aF-23.0
aF-64.0
aF-244.0
aF-127.0
aF-192.5
aF-154.5
aF-3.5
aF-64.0
aF-64.0
aF-64.0
aF-64.0
asa(dp2837
I1
(lp2838
F-10.5
aF-9.5
aF-5.0
aF-0.5
aF-6.0
aF-9.0
aF-244.0
aF-260.5
aF-244.0
aF-244.0
aF-7.0
aF-12.5
aF-2.0
aF-64.0
aF-74.0
aF-1.5
aF-2.5
aF-244.0
aF-27.0
aF-64.0
aF-42.5
aF-74.0
aF-64.0
aF-22.0
aF-244.0
aF-64.0
aF-64.0
aF-64.0
aF-7.5
aF-64.0
aF-132.0
aF-1.0
asa(dp2839
I1
(lp2840
F-7.0
aF-2.0
aF-5.0
aF-5.5
aF-4.5
aF-144.0
aF-236.5
aF-2.5
aF-10.0
aF-74.0
aF-64.0
aF-64.0
aF-64.0
aF0.5
aF-64.0
aF-26.0
aF-244.0
aF-40.0
aF-64.0
aF-28.0
aF-8.0
aF-21.0
aF-244.0
aF-127.0
aF-3.5
aF-10.0
aF-64.0
aF-64.0
aF-64.0
aF-64.0
aF-12.5
aF-64.0
asa(dp2841
I1
(lp2842
F-6.0
aF-3.5
aF-9.0
aF-7.0
aF-7.0
aF-244.0
aF-178.5
aF-64.0
aF-126.5
aF-244.0
aF-244.0
aF-17.5
aF-64.0
aF-14.5
aF-24.5
aF-143.0
aF-136.0
aF-144.0
aF-64.0
aF-3.5
aF-190.5
aF-1.5
aF-64.0
aF-21.5
aF-64.0
aF-18.0
aF-64.0
aF-22.0
aF-12.0
aF-244.0
aF-7.5
aF-44.0
asa(dp2843
I1
(lp2844
F-8.0
aF-0.5
aF-2.5
aF-8.5
aF-6.0
aF-27.5
aF-74.0
aF-64.0
aF-64.0
aF-64.0
aF-64.0
aF-244.0
aF-10.5
aF-64.0
aF-19.0
aF-244.0
aF-244.0
aF-64.0
aF-64.0
aF-2.0
aF-7.0
aF-64.0
aF-28.5
aF-21.0
aF-64.0
aF-64.0
aF-64.0
aF-141.0
aF-244.0
aF-4.5
aF-155.0
aF-64.0
asa(dp2845
I1
(lp2846
F-5.0
aF-5.5
aF-3.5
aF-3.5
aF-6.0
aF-64.0
aF-15.5
aF-64.0
aF-39.0
aF-74.0
aF-5.0
aF-8.5
aF-19.5
aF-64.0
aF-64.0
aF-126.5
aF-64.0
aF-64.0
aF-64.0
aF-6.5
aF-6.0
aF-25.0
aF-152.5
aF-64.0
aF-3.0
aF-14.5
aF-64.0
aF-64.0
aF-64.0
aF-64.0
aF-5.5
aF-64.0
asa(dp2847
I1
(lp2848
F-10.5
aF-5.5
aF-10.0
aF-1.0
aF-7.0
aF-74.0
aF-244.0
aF-74.0
aF-3.0
aF-8.0
aF-16.5
aF-64.0
aF-64.0
aF-64.0
aF-64.0
aF-244.0
aF-64.0
aF-19.0
aF-64.0
aF-74.0
aF-11.0
aF-64.0
aF-141.5
aF-64.0
aF-143.5
aF-1.5
aF-64.0
aF-144.0
aF-10.5
aF-33.0
aF-10.5
aF-158.0
asa(dp2849
I1
(lp2850
F-5.0
aF-7.0
aF-4.5
aF-4.5
aF-2.5
aF-31.5
aF-244.0
aF-64.0
aF-32.5
aF-4.0
aF-4.5
aF-125.0
aF-64.0
aF-5.0
aF-37.5
aF-64.0
aF-244.0
aF-54.0
aF-64.0
aF-9.5
aF-244.0
aF-2.0
aF-157.5
aF-64.0
aF-64.0
aF-64.0
aF-6.0
aF-64.0
aF-1.0
aF-244.0
aF-64.0
aF-244.0
asa(dp2851
I1
(lp2852
F-4.0
aF-4.5
aF-4.5
aF-5.5
aF-3.0
aF-244.0
aF-64.0
aF-30.0
aF-45.0
aF-64.0
aF-12.0
aF-144.0
aF-64.0
aF-126.0
aF-64.0
aF-36.5
aF-64.0
aF-17.0
aF-163.0
aF-244.0
aF-169.0
aF-64.0
aF-8.5
aF-139.5
aF-140.0
aF-4.0
aF-64.0
aF-11.0
aF-64.0
aF-38.5
aF-74.0
aF-38.5
asasS'most_fit_genomes'
p2853
(lp2854
g0
(g16
g2
Ntp2855
Rp2856
(dp2857
g51
I27
sg143
g0
(g144
g2
Ntp2858
Rp2859
(dp2860
g210
(dp2861
g212
g156
sg213
g154
ssg192
(dp2862
g194
(lp2863
g198
ag201
asg202
(lp2864
g206
ag209
assg191
I5
sg190
I4
sg189
I0
sg187
g188
sg186
Nsg185
F30.0
sg184
F-30.0
sg183
I00
sg182
F1.0
sg180
(lp2865
g106
asg179
g16
sg178
I32
sg177
F0.95
sg176
F0.1
sg175
F0.1
sg174
F0.05
sg173
F0.05
sg172
F0.8
sg171
F0.5
sg170
F0.8
sg169
F0.5
sg168
F0.8
sg167
F0.1
sg166
F0.5
sg165
F0.0
sg164
F0.01
sg163
I01
sg162
F3.0
sg161
F1.0
sg160
F1.0
sg159
F0.5
sg158
g81
sg157
g120
sg155
g156
sg153
g154
sg152
I01
sg151
I01
sg150
I00
sg149
Nsg148
Nsbsg142
I5
sg141
I4
sg117
(dp2866
(I3
I5
tp2867
g0
(g120
g2
Ntp2868
Rp2869
(dp2870
g128
I12
sg127
I3
sg126
I5
sg125
F-0.31281061036755003
sg124
I01
sbs(I3
I6
tp2871
g0
(g120
g2
Ntp2872
Rp2873
(dp2874
g128
I13
sg127
I3
sg126
I6
sg125
F0.8619842620854336
sg124
I01
sbs(I3
I7
tp2875
g0
(g120
g2
Ntp2876
Rp2877
(dp2878
g128
I14
sg127
I3
sg126
I7
sg125
F0.0014064574581892624
sg124
I01
sbs(I3
I8
tp2879
g0
(g120
g2
Ntp2880
Rp2881
(dp2882
g128
I15
sg127
I3
sg126
I8
sg125
F0.9065554501895723
sg124
I01
sbssg79
(dp2883
I0
g0
(g81
g2
Ntp2884
Rp2885
(dp2886
g51
I0
sg89
g90
sg88
F0.0
sg87
F4.924273
sg85
g86
sbsI1
g0
(g81
g2
Ntp2887
Rp2888
(dp2889
g51
I1
sg89
g90
sg88
F0.0
sg87
F4.924273
sg85
g86
sbsI2
g0
(g81
g2
Ntp2890
Rp2891
(dp2892
g51
I2
sg89
g90
sg88
F0.0
sg87
F4.924273
sg85
g86
sbsI3
g0
(g81
g2
Ntp2893
Rp2894
(dp2895
g51
I3
sg89
g90
sg88
F0.0
sg87
F4.924273
sg85
g86
sbsI4
g0
(g81
g2
Ntp2896
Rp2897
(dp2898
g51
I4
sg89
g90
sg88
F0.0
sg87
F4.924273
sg85
g86
sbsI5
g0
(g81
g2
Ntp2899
Rp2900
(dp2901
g51
I5
sg89
g107
sg88
F0.0
sg87
F4.924273
sg85
g106
sbsI6
g0
(g81
g2
Ntp2902
Rp2903
(dp2904
g51
I6
sg89
g107
sg88
F0.0
sg87
F4.924273
sg85
g106
sbsI7
g0
(g81
g2
Ntp2905
Rp2906
(dp2907
g51
I7
sg89
g107
sg88
F0.0
sg87
F4.924273
sg85
g106
sbsI8
g0
(g81
g2
Ntp2908
Rp2909
(dp2910
g51
I8
sg89
g107
sg88
F0.0
sg87
F4.924273
sg85
g106
sbssg78
F-6.0
sg77
I1
sg76
Nsg75
Nsg74
I1
sg73
I1
sg72
I4
sg35
(dp2911
I0
g0
(g37
g2
Ntp2912
Rp2913
(dp2914
g51
I0
sg41
(dp2915
g43
g0
(g44
g2
Ntp2916
Rp2917
(dp2918
g51
I1
sg50
F0.01
sg49
F0.0
sg48
F1.0
sbsg52
g0
(g44
g2
Ntp2919
Rp2920
(dp2921
g51
I1
sg50
F0.02
sg49
F0.0
sg48
F1.0
sbsg56
g0
(g44
g2
Ntp2922
Rp2923
(dp2924
g51
I1
sg50
F0.0
sg49
F0.0
sg48
F1.0
sbsg60
g0
(g44
g2
Ntp2925
Rp2926
(dp2927
g51
I1
sg50
F0.2
sg49
F0.0
sg48
F1.0
sbsg64
g0
(g44
g2
Ntp2928
Rp2929
(dp2930
g51
I1
sg50
F0.02
sg49
F0.0
sg48
F1.0
sbsg68
g0
(g44
g2
Ntp2931
Rp2932
(dp2933
g51
I1
sg50
F0.0
sg49
F0.0
sg48
F1.0
sbssbssg33
(dp2934
sg26
(lp2935
g28
aS'a0t0'
p2936
aS'a0t1'
p2937
aS'a0t2'
p2938
aS'a0t3'
p2939
asg20
(lp2940
g22
ag23
aS'a0'
p2941
aS'h0'
p2942
asbag0
(g16
g2
Ntp2943
Rp2944
(dp2945
g51
I27
sg143
g0
(g144
g2
Ntp2946
Rp2947
(dp2948
g210
(dp2949
g212
g156
sg213
g154
ssg192
(dp2950
g194
(lp2951
g198
ag201
asg202
(lp2952
g206
ag209
assg191
I5
sg190
I4
sg189
I0
sg187
g188
sg186
Nsg185
F30.0
sg184
F-30.0
sg183
I00
sg182
F1.0
sg180
(lp2953
g106
asg179
g16
sg178
I32
sg177
F0.95
sg176
F0.1
sg175
F0.1
sg174
F0.05
sg173
F0.05
sg172
F0.8
sg171
F0.5
sg170
F0.8
sg169
F0.5
sg168
F0.8
sg167
F0.1
sg166
F0.5
sg165
F0.0
sg164
F0.01
sg163
I01
sg162
F3.0
sg161
F1.0
sg160
F1.0
sg159
F0.5
sg158
g81
sg157
g120
sg155
g156
sg153
g154
sg152
I01
sg151
I01
sg150
I00
sg149
Nsg148
Nsbsg142
I5
sg141
I4
sg117
(dp2954
g2867
g0
(g120
g2
Ntp2955
Rp2956
(dp2957
g128
I12
sg127
I3
sg126
I5
sg125
F-0.31281061036755003
sg124
I01
sbsg2871
g0
(g120
g2
Ntp2958
Rp2959
(dp2960
g128
I13
sg127
I3
sg126
I6
sg125
F0.8619842620854336
sg124
I01
sbsg2875
g0
(g120
g2
Ntp2961
Rp2962
(dp2963
g128
I14
sg127
I3
sg126
I7
sg125
F0.0014064574581892624
sg124
I01
sbsg2879
g0
(g120
g2
Ntp2964
Rp2965
(dp2966
g128
I15
sg127
I3
sg126
I8
sg125
F0.9065554501895723
sg124
I01
sbssg79
(dp2967
I0
g0
(g81
g2
Ntp2968
Rp2969
(dp2970
g51
I0
sg89
g90
sg88
F0.0
sg87
F4.924273
sg85
g86
sbsI1
g0
(g81
g2
Ntp2971
Rp2972
(dp2973
g51
I1
sg89
g90
sg88
F0.0
sg87
F4.924273
sg85
g86
sbsI2
g0
(g81
g2
Ntp2974
Rp2975
(dp2976
g51
I2
sg89
g90
sg88
F0.0
sg87
F4.924273
sg85
g86
sbsI3
g0
(g81
g2
Ntp2977
Rp2978
(dp2979
g51
I3
sg89
g90
sg88
F0.0
sg87
F4.924273
sg85
g86
sbsI4
g0
(g81
g2
Ntp2980
Rp2981
(dp2982
g51
I4
sg89
g90
sg88
F0.0
sg87
F4.924273
sg85
g86
sbsI5
g0
(g81
g2
Ntp2983
Rp2984
(dp2985
g51
I5
sg89
g107
sg88
F0.0
sg87
F4.924273
sg85
g106
sbsI6
g0
(g81
g2
Ntp2986
Rp2987
(dp2988
g51
I6
sg89
g107
sg88
F0.0
sg87
F4.924273
sg85
g106
sbsI7
g0
(g81
g2
Ntp2989
Rp2990
(dp2991
g51
I7
sg89
g107
sg88
F0.0
sg87
F4.924273
sg85
g106
sbsI8
g0
(g81
g2
Ntp2992
Rp2993
(dp2994
g51
I8
sg89
g107
sg88
F0.0
sg87
F4.924273
sg85
g106
sbssg78
F-9.0
sg77
I1
sg76
Nsg75
Nsg74
I1
sg73
I1
sg72
I4
sg35
(dp2995
I0
g0
(g37
g2
Ntp2996
Rp2997
(dp2998
g51
I0
sg41
(dp2999
g43
g0
(g44
g2
Ntp3000
Rp3001
(dp3002
g51
I1
sg50
F0.01
sg49
F0.0
sg48
F1.0
sbsg52
g0
(g44
g2
Ntp3003
Rp3004
(dp3005
g51
I1
sg50
F0.02
sg49
F0.0
sg48
F1.0
sbsg56
g0
(g44
g2
Ntp3006
Rp3007
(dp3008
g51
I1
sg50
F0.0
sg49
F0.0
sg48
F1.0
sbsg60
g0
(g44
g2
Ntp3009
Rp3010
(dp3011
g51
I1
sg50
F0.2
sg49
F0.0
sg48
F1.0
sbsg64
g0
(g44
g2
Ntp3012
Rp3013
(dp3014
g51
I1
sg50
F0.02
sg49
F0.0
sg48
F1.0
sbsg68
g0
(g44
g2
Ntp3015
Rp3016
(dp3017
g51
I1
sg50
F0.0
sg49
F0.0
sg48
F1.0
sbssbssg33
(dp3018
sg26
(lp3019
g28
ag2936
ag2937
ag2938
ag2939
asg20
(lp3020
g22
ag23
ag2941
ag2942
asbag0
(g16
g2
Ntp3021
Rp3022
(dp3023
g51
I77
sg143
g0
(g144
g2
Ntp3024
Rp3025
(dp3026
g210
(dp3027
g212
g156
sg213
g154
ssg192
(dp3028
g194
(lp3029
g198
ag201
asg202
(lp3030
g206
ag209
assg191
I5
sg190
I4
sg189
I0
sg187
g188
sg186
Nsg185
F30.0
sg184
F-30.0
sg183
I00
sg182
F1.0
sg180
(lp3031
g106
asg179
g16
sg178
I32
sg177
F0.95
sg176
F0.1
sg175
F0.1
sg174
F0.05
sg173
F0.05
sg172
F0.8
sg171
F0.5
sg170
F0.8
sg169
F0.5
sg168
F0.8
sg167
F0.1
sg166
F0.5
sg165
F0.0
sg164
F0.01
sg163
I01
sg162
F3.0
sg161
F1.0
sg160
F1.0
sg159
F0.5
sg158
g81
sg157
g120
sg155
g156
sg153
g154
sg152
I01
sg151
I01
sg150
I00
sg149
Nsg148
Nsbsg142
I5
sg141
I4
sg117
(dp3032
(I3
I5
tp3033
g0
(g120
g2
Ntp3034
Rp3035
(dp3036
g128
I12
sg127
I3
sg126
I5
sg125
F-1.532787062396153
sg124
I01
sbs(I3
I6
tp3037
g0
(g120
g2
Ntp3038
Rp3039
(dp3040
g128
I13
sg127
I3
sg126
I6
sg125
F0.34671971647143496
sg124
I01
sbs(I3
I7
tp3041
g0
(g120
g2
Ntp3042
Rp3043
(dp3044
g128
I14
sg127
I3
sg126
I7
sg125
F0.3329791643583041
sg124
I00
sbs(I3
I8
tp3045
g0
(g120
g2
Ntp3046
Rp3047
(dp3048
g128
I15
sg127
I3
sg126
I8
sg125
F0.20097280420864416
sg124
I01
sbs(I3
I9
tp3049
g0
(g120
g2
Ntp3050
Rp3051
(dp3052
g128
I20
sg127
I3
sg126
I9
sg125
F0.6215336610323996
sg124
I01
sbs(I9
I7
tp3053
g0
(g120
g2
Ntp3054
Rp3055
(dp3056
g128
I21
sg127
I9
sg126
I7
sg125
F-0.034776285108640614
sg124
I01
sbssg79
(dp3057
I0
g0
(g81
g2
Ntp3058
Rp3059
(dp3060
g51
I0
sg89
g90
sg88
F0.0
sg87
F4.924273
sg85
g86
sbsI1
g0
(g81
g2
Ntp3061
Rp3062
(dp3063
g51
I1
sg89
g90
sg88
F0.0
sg87
F4.924273
sg85
g86
sbsI2
g0
(g81
g2
Ntp3064
Rp3065
(dp3066
g51
I2
sg89
g90
sg88
F0.0
sg87
F4.924273
sg85
g86
sbsI3
g0
(g81
g2
Ntp3067
Rp3068
(dp3069
g51
I3
sg89
g90
sg88
F0.0
sg87
F4.924273
sg85
g86
sbsI4
g0
(g81
g2
Ntp3070
Rp3071
(dp3072
g51
I4
sg89
g90
sg88
F0.0
sg87
F4.924273
sg85
g86
sbsI5
g0
(g81
g2
Ntp3073
Rp3074
(dp3075
g51
I5
sg89
g107
sg88
F0.35390551144736393
sg87
F4.668225007432357
sg85
g106
sbsI6
g0
(g81
g2
Ntp3076
Rp3077
(dp3078
g51
I6
sg89
g107
sg88
F-0.18108515751447096
sg87
F5.449798403316201
sg85
g106
sbsI7
g0
(g81
g2
Ntp3079
Rp3080
(dp3081
g51
I7
sg89
g107
sg88
F0.02954008027303703
sg87
F5.639942845696076
sg85
g106
sbsI8
g0
(g81
g2
Ntp3082
Rp3083
(dp3084
g51
I8
sg89
g107
sg88
F1.1608188954832692
sg87
F5.972531975593239
sg85
g106
sbsI9
g0
(g81
g2
Ntp3085
Rp3086
(dp3087
g51
I9
sg89
g852
sg88
F0.3095849634028153
sg87
F5.135103697614054
sg85
g106
sbssg78
F-4.0
sg77
I1
sg76
I35
sg75
I35
sg74
I1
sg73
I1
sg72
I4
sg35
(dp3088
I0
g0
(g37
g2
Ntp3089
Rp3090
(dp3091
g51
I0
sg41
(dp3092
g43
g0
(g44
g2
Ntp3093
Rp3094
(dp3095
g51
I1
sg50
F0.01
sg49
F0.0
sg48
F1.0
sbsg52
g0
(g44
g2
Ntp3096
Rp3097
(dp3098
g51
I1
sg50
F0.02
sg49
F0.0
sg48
F1.0
sbsg56
g0
(g44
g2
Ntp3099
Rp3100
(dp3101
g51
I1
sg50
F0.0
sg49
F0.0
sg48
F1.0
sbsg60
g0
(g44
g2
Ntp3102
Rp3103
(dp3104
g51
I1
sg50
F0.2
sg49
F0.0
sg48
F1.0
sbsg64
g0
(g44
g2
Ntp3105
Rp3106
(dp3107
g51
I1
sg50
F0.02
sg49
F0.0
sg48
F1.0
sbsg68
g0
(g44
g2
Ntp3108
Rp3109
(dp3110
g51
I1
sg50
F0.0
sg49
F0.0
sg48
F1.0
sbssbssg33
(dp3111
sg26
(lp3112
g28
aS'a0t0'
p3113
aS'a0t1'
p3114
aS'a0t2'
p3115
aS'a0t3'
p3116
asg20
(lp3117
g22
ag23
aS'a0'
p3118
aS'h0'
p3119
asbag0
(g16
g2
Ntp3120
Rp3121
(dp3122
g51
I105
sg143
g0
(g144
g2
Ntp3123
Rp3124
(dp3125
g210
(dp3126
g212
g156
sg213
g154
ssg192
(dp3127
g194
(lp3128
g198
ag201
asg202
(lp3129
g206
ag209
assg191
I5
sg190
I4
sg189
I0
sg187
g188
sg186
Nsg185
F30.0
sg184
F-30.0
sg183
I00
sg182
F1.0
sg180
(lp3130
g106
asg179
g16
sg178
I32
sg177
F0.95
sg176
F0.1
sg175
F0.1
sg174
F0.05
sg173
F0.05
sg172
F0.8
sg171
F0.5
sg170
F0.8
sg169
F0.5
sg168
F0.8
sg167
F0.1
sg166
F0.5
sg165
F0.0
sg164
F0.01
sg163
I01
sg162
F3.0
sg161
F1.0
sg160
F1.0
sg159
F0.5
sg158
g81
sg157
g120
sg155
g156
sg153
g154
sg152
I01
sg151
I01
sg150
I00
sg149
Nsg148
Nsbsg142
I5
sg141
I4
sg117
(dp3131
(I3
I5
tp3132
g0
(g120
g2
Ntp3133
Rp3134
(dp3135
g128
I12
sg127
I3
sg126
I5
sg125
F-1.0495917161111143
sg124
I00
sbs(I3
I6
tp3136
g0
(g120
g2
Ntp3137
Rp3138
(dp3139
g128
I13
sg127
I3
sg126
I6
sg125
F0.3088863045932391
sg124
I01
sbs(I3
I7
tp3140
g0
(g120
g2
Ntp3141
Rp3142
(dp3143
g128
I14
sg127
I3
sg126
I7
sg125
F0.9063008525171854
sg124
I01
sbs(I3
I8
tp3144
g0
(g120
g2
Ntp3145
Rp3146
(dp3147
g128
I15
sg127
I3
sg126
I8
sg125
F1.938679428005671
sg124
I01
sbs(I3
I9
tp3148
g0
(g120
g2
Ntp3149
Rp3150
(dp3151
g128
I20
sg127
I3
sg126
I9
sg125
F0.7830794061967298
sg124
I01
sbs(I9
I5
tp3152
g0
(g120
g2
Ntp3153
Rp3154
(dp3155
g128
I23
sg127
I9
sg126
I5
sg125
F-1.2039175526317172
sg124
I01
sbssg79
(dp3156
I0
g0
(g81
g2
Ntp3157
Rp3158
(dp3159
g51
I0
sg89
g90
sg88
F0.0
sg87
F4.924273
sg85
g86
sbsI1
g0
(g81
g2
Ntp3160
Rp3161
(dp3162
g51
I1
sg89
g90
sg88
F0.0
sg87
F4.924273
sg85
g86
sbsI2
g0
(g81
g2
Ntp3163
Rp3164
(dp3165
g51
I2
sg89
g90
sg88
F0.0
sg87
F4.924273
sg85
g86
sbsI3
g0
(g81
g2
Ntp3166
Rp3167
(dp3168
g51
I3
sg89
g90
sg88
F0.0
sg87
F4.924273
sg85
g86
sbsI4
g0
(g81
g2
Ntp3169
Rp3170
(dp3171
g51
I4
sg89
g90
sg88
F0.0
sg87
F4.924273
sg85
g86
sbsI5
g0
(g81
g2
Ntp3172
Rp3173
(dp3174
g51
I5
sg89
g107
sg88
F0.6559484563463598
sg87
F5.386751579292282
sg85
g106
sbsI6
g0
(g81
g2
Ntp3175
Rp3176
(dp3177
g51
I6
sg89
g107
sg88
F0.035738858230491416
sg87
F3.982898889399723
sg85
g106
sbsI7
g0
(g81
g2
Ntp3178
Rp3179
(dp3180
g51
I7
sg89
g107
sg88
F-0.4661565416956483
sg87
F5.741012617286603
sg85
g106
sbsI8
g0
(g81
g2
Ntp3181
Rp3182
(dp3183
g51
I8
sg89
g107
sg88
F-0.467347090831604
sg87
F4.122649796685921
sg85
g106
sbsI9
g0
(g81
g2
Ntp3184
Rp3185
(dp3186
g51
I9
sg89
g852
sg88
F0.048027967071829346
sg87
F5.594192814620806
sg85
g106
sbssg78
F-1.0
sg77
I1
sg76
I69
sg75
I78
sg74
I1
sg73
I1
sg72
I4
sg35
(dp3187
I0
g0
(g37
g2
Ntp3188
Rp3189
(dp3190
g51
I0
sg41
(dp3191
g43
g0
(g44
g2
Ntp3192
Rp3193
(dp3194
g51
I1
sg50
F0.01
sg49
F0.0
sg48
F1.0
sbsg52
g0
(g44
g2
Ntp3195
Rp3196
(dp3197
g51
I1
sg50
F0.02
sg49
F0.0
sg48
F1.0
sbsg56
g0
(g44
g2
Ntp3198
Rp3199
(dp3200
g51
I1
sg50
F0.0
sg49
F0.0
sg48
F1.0
sbsg60
g0
(g44
g2
Ntp3201
Rp3202
(dp3203
g51
I1
sg50
F0.2
sg49
F0.0
sg48
F1.0
sbsg64
g0
(g44
g2
Ntp3204
Rp3205
(dp3206
g51
I1
sg50
F0.02
sg49
F0.0
sg48
F1.0
sbsg68
g0
(g44
g2
Ntp3207
Rp3208
(dp3209
g51
I1
sg50
F0.0
sg49
F0.0
sg48
F1.0
sbssbssg33
(dp3210
sg26
(lp3211
g28
aS'a0t0'
p3212
aS'a0t1'
p3213
aS'a0t2'
p3214
aS'a0t3'
p3215
asg20
(lp3216
g22
ag23
aS'a0'
p3217
aS'h0'
p3218
asbag0
(g16
g2
Ntp3219
Rp3220
(dp3221
g51
I140
sg143
g0
(g144
g2
Ntp3222
Rp3223
(dp3224
g210
(dp3225
g212
g156
sg213
g154
ssg192
(dp3226
g194
(lp3227
g198
ag201
asg202
(lp3228
g206
ag209
assg191
I5
sg190
I4
sg189
I0
sg187
g188
sg186
Nsg185
F30.0
sg184
F-30.0
sg183
I00
sg182
F1.0
sg180
(lp3229
g106
asg179
g16
sg178
I32
sg177
F0.95
sg176
F0.1
sg175
F0.1
sg174
F0.05
sg173
F0.05
sg172
F0.8
sg171
F0.5
sg170
F0.8
sg169
F0.5
sg168
F0.8
sg167
F0.1
sg166
F0.5
sg165
F0.0
sg164
F0.01
sg163
I01
sg162
F3.0
sg161
F1.0
sg160
F1.0
sg159
F0.5
sg158
g81
sg157
g120
sg155
g156
sg153
g154
sg152
I01
sg151
I01
sg150
I00
sg149
Nsg148
Nsbsg142
I5
sg141
I4
sg117
(dp3230
(I3
I5
tp3231
g0
(g120
g2
Ntp3232
Rp3233
(dp3234
g128
I12
sg127
I3
sg126
I5
sg125
F-1.2623289019516273
sg124
I01
sbs(I3
I6
tp3235
g0
(g120
g2
Ntp3236
Rp3237
(dp3238
g128
I13
sg127
I3
sg126
I6
sg125
F0.9211897369991732
sg124
I01
sbs(I3
I7
tp3239
g0
(g120
g2
Ntp3240
Rp3241
(dp3242
g128
I14
sg127
I3
sg126
I7
sg125
F-0.09314480823974686
sg124
I01
sbs(I3
I8
tp3243
g0
(g120
g2
Ntp3244
Rp3245
(dp3246
g128
I15
sg127
I3
sg126
I8
sg125
F1.0904340660343559
sg124
I01
sbs(I3
I9
tp3247
g0
(g120
g2
Ntp3248
Rp3249
(dp3250
g128
I20
sg127
I3
sg126
I9
sg125
F0.6215336610323996
sg124
I01
sbs(I9
I7
tp3251
g0
(g120
g2
Ntp3252
Rp3253
(dp3254
g128
I21
sg127
I9
sg126
I7
sg125
F-0.1815572005618681
sg124
I01
sbssg79
(dp3255
I0
g0
(g81
g2
Ntp3256
Rp3257
(dp3258
g51
I0
sg89
g90
sg88
F0.0
sg87
F4.924273
sg85
g86
sbsI1
g0
(g81
g2
Ntp3259
Rp3260
(dp3261
g51
I1
sg89
g90
sg88
F0.0
sg87
F4.924273
sg85
g86
sbsI2
g0
(g81
g2
Ntp3262
Rp3263
(dp3264
g51
I2
sg89
g90
sg88
F0.0
sg87
F4.924273
sg85
g86
sbsI3
g0
(g81
g2
Ntp3265
Rp3266
(dp3267
g51
I3
sg89
g90
sg88
F0.0
sg87
F4.924273
sg85
g86
sbsI4
g0
(g81
g2
Ntp3268
Rp3269
(dp3270
g51
I4
sg89
g90
sg88
F0.0
sg87
F4.924273
sg85
g86
sbsI5
g0
(g81
g2
Ntp3271
Rp3272
(dp3273
g51
I5
sg89
g107
sg88
F-1.3094902474955326
sg87
F5.676101416239811
sg85
g106
sbsI6
g0
(g81
g2
Ntp3274
Rp3275
(dp3276
g51
I6
sg89
g107
sg88
F0.7864706649751199
sg87
F5.377038753685107
sg85
g106
sbsI7
g0
(g81
g2
Ntp3277
Rp3278
(dp3279
g51
I7
sg89
g107
sg88
F0.3945940484185753
sg87
F4.87202458986166
sg85
g106
sbsI8
g0
(g81
g2
Ntp3280
Rp3281
(dp3282
g51
I8
sg89
g107
sg88
F0.20659785151218796
sg87
F3.53735267603956
sg85
g106
sbsI9
g0
(g81
g2
Ntp3283
Rp3284
(dp3285
g51
I9
sg89
g852
sg88
F0.3095849634028153
sg87
F4.594888947146633
sg85
g106
sbssg78
F-3.0
sg77
I1
sg76
I77
sg75
I81
sg74
I1
sg73
I1
sg72
I4
sg35
(dp3286
I0
g0
(g37
g2
Ntp3287
Rp3288
(dp3289
g51
I0
sg41
(dp3290
g43
g0
(g44
g2
Ntp3291
Rp3292
(dp3293
g51
I1
sg50
F0.01
sg49
F0.0
sg48
F1.0
sbsg52
g0
(g44
g2
Ntp3294
Rp3295
(dp3296
g51
I1
sg50
F0.02
sg49
F0.0
sg48
F1.0
sbsg56
g0
(g44
g2
Ntp3297
Rp3298
(dp3299
g51
I1
sg50
F0.0
sg49
F0.0
sg48
F1.0
sbsg60
g0
(g44
g2
Ntp3300
Rp3301
(dp3302
g51
I1
sg50
F0.2
sg49
F0.0
sg48
F1.0
sbsg64
g0
(g44
g2
Ntp3303
Rp3304
(dp3305
g51
I1
sg50
F0.02
sg49
F0.0
sg48
F1.0
sbsg68
g0
(g44
g2
Ntp3306
Rp3307
(dp3308
g51
I1
sg50
F0.0
sg49
F0.0
sg48
F1.0
sbssbssg33
(dp3309
sg26
(lp3310
g28
aS'a0t0'
p3311
aS'a0t1'
p3312
aS'a0t2'
p3313
aS'a0t3'
p3314
asg20
(lp3315
g22
ag23
aS'a0'
p3316
aS'h0'
p3317
asbag0
(g16
g2
Ntp3318
Rp3319
(dp3320
g51
I114
sg143
g0
(g144
g2
Ntp3321
Rp3322
(dp3323
g210
(dp3324
g212
g156
sg213
g154
ssg192
(dp3325
g194
(lp3326
g198
ag201
asg202
(lp3327
g206
ag209
assg191
I5
sg190
I4
sg189
I0
sg187
g188
sg186
Nsg185
F30.0
sg184
F-30.0
sg183
I00
sg182
F1.0
sg180
(lp3328
g106
asg179
g16
sg178
I32
sg177
F0.95
sg176
F0.1
sg175
F0.1
sg174
F0.05
sg173
F0.05
sg172
F0.8
sg171
F0.5
sg170
F0.8
sg169
F0.5
sg168
F0.8
sg167
F0.1
sg166
F0.5
sg165
F0.0
sg164
F0.01
sg163
I01
sg162
F3.0
sg161
F1.0
sg160
F1.0
sg159
F0.5
sg158
g81
sg157
g120
sg155
g156
sg153
g154
sg152
I01
sg151
I01
sg150
I00
sg149
Nsg148
Nsbsg142
I5
sg141
I4
sg117
(dp3329
(I3
I5
tp3330
g0
(g120
g2
Ntp3331
Rp3332
(dp3333
g128
I12
sg127
I3
sg126
I5
sg125
F-1.2661634943458704
sg124
I01
sbs(I3
I6
tp3334
g0
(g120
g2
Ntp3335
Rp3336
(dp3337
g128
I13
sg127
I3
sg126
I6
sg125
F1.5310907456773977
sg124
I01
sbs(I3
I7
tp3338
g0
(g120
g2
Ntp3339
Rp3340
(dp3341
g128
I14
sg127
I3
sg126
I7
sg125
F0.1986241003616434
sg124
I01
sbs(I3
I8
tp3342
g0
(g120
g2
Ntp3343
Rp3344
(dp3345
g128
I15
sg127
I3
sg126
I8
sg125
F0.9007461049522723
sg124
I01
sbssg79
(dp3346
I0
g0
(g81
g2
Ntp3347
Rp3348
(dp3349
g51
I0
sg89
g90
sg88
F0.0
sg87
F4.924273
sg85
g86
sbsI1
g0
(g81
g2
Ntp3350
Rp3351
(dp3352
g51
I1
sg89
g90
sg88
F0.0
sg87
F4.924273
sg85
g86
sbsI2
g0
(g81
g2
Ntp3353
Rp3354
(dp3355
g51
I2
sg89
g90
sg88
F0.0
sg87
F4.924273
sg85
g86
sbsI3
g0
(g81
g2
Ntp3356
Rp3357
(dp3358
g51
I3
sg89
g90
sg88
F0.0
sg87
F4.924273
sg85
g86
sbsI4
g0
(g81
g2
Ntp3359
Rp3360
(dp3361
g51
I4
sg89
g90
sg88
F0.0
sg87
F4.924273
sg85
g86
sbsI5
g0
(g81
g2
Ntp3362
Rp3363
(dp3364
g51
I5
sg89
g107
sg88
F-1.1037073655150698
sg87
F5.6716730301632134
sg85
g106
sbsI6
g0
(g81
g2
Ntp3365
Rp3366
(dp3367
g51
I6
sg89
g107
sg88
F0.5754418828018706
sg87
F4.758495733393813
sg85
g106
sbsI7
g0
(g81
g2
Ntp3368
Rp3369
(dp3370
g51
I7
sg89
g107
sg88
F-0.08932016186548736
sg87
F3.8407649713097087
sg85
g106
sbsI8
g0
(g81
g2
Ntp3371
Rp3372
(dp3373
g51
I8
sg89
g107
sg88
F0.9136725071461749
sg87
F4.044440503462018
sg85
g106
sbssg78
F0.5
sg77
I1
sg76
I78
sg75
I81
sg74
I1
sg73
I1
sg72
I4
sg35
(dp3374
I0
g0
(g37
g2
Ntp3375
Rp3376
(dp3377
g51
I0
sg41
(dp3378
g43
g0
(g44
g2
Ntp3379
Rp3380
(dp3381
g51
I1
sg50
F0.01
sg49
F0.0
sg48
F1.0
sbsg52
g0
(g44
g2
Ntp3382
Rp3383
(dp3384
g51
I1
sg50
F0.02
sg49
F0.0
sg48
F1.0
sbsg56
g0
(g44
g2
Ntp3385
Rp3386
(dp3387
g51
I1
sg50
F0.0
sg49
F0.0
sg48
F1.0
sbsg60
g0
(g44
g2
Ntp3388
Rp3389
(dp3390
g51
I1
sg50
F0.2
sg49
F0.0
sg48
F1.0
sbsg64
g0
(g44
g2
Ntp3391
Rp3392
(dp3393
g51
I1
sg50
F0.02
sg49
F0.0
sg48
F1.0
sbsg68
g0
(g44
g2
Ntp3394
Rp3395
(dp3396
g51
I1
sg50
F0.0
sg49
F0.0
sg48
F1.0
sbssbssg33
(dp3397
sg26
(lp3398
g28
aS'a0t0'
p3399
aS'a0t1'
p3400
aS'a0t2'
p3401
aS'a0t3'
p3402
asg20
(lp3403
g22
ag23
aS'a0'
p3404
aS'h0'
p3405
asbag0
(g16
g2
Ntp3406
Rp3407
(dp3408
g51
I186
sg143
g0
(g144
g2
Ntp3409
Rp3410
(dp3411
g210
(dp3412
g212
g156
sg213
g154
ssg192
(dp3413
g194
(lp3414
g198
ag201
asg202
(lp3415
g206
ag209
assg191
I5
sg190
I4
sg189
I0
sg187
g188
sg186
Nsg185
F30.0
sg184
F-30.0
sg183
I00
sg182
F1.0
sg180
(lp3416
g106
asg179
g16
sg178
I32
sg177
F0.95
sg176
F0.1
sg175
F0.1
sg174
F0.05
sg173
F0.05
sg172
F0.8
sg171
F0.5
sg170
F0.8
sg169
F0.5
sg168
F0.8
sg167
F0.1
sg166
F0.5
sg165
F0.0
sg164
F0.01
sg163
I01
sg162
F3.0
sg161
F1.0
sg160
F1.0
sg159
F0.5
sg158
g81
sg157
g120
sg155
g156
sg153
g154
sg152
I01
sg151
I01
sg150
I00
sg149
Nsg148
Nsbsg142
I5
sg141
I4
sg117
(dp3417
(I3
I5
tp3418
g0
(g120
g2
Ntp3419
Rp3420
(dp3421
g128
I12
sg127
I3
sg126
I5
sg125
F-1.4846971619817682
sg124
I00
sbs(I3
I6
tp3422
g0
(g120
g2
Ntp3423
Rp3424
(dp3425
g128
I13
sg127
I3
sg126
I6
sg125
F1.301363179170255
sg124
I01
sbs(I3
I7
tp3426
g0
(g120
g2
Ntp3427
Rp3428
(dp3429
g128
I14
sg127
I3
sg126
I7
sg125
F0.9535927841845296
sg124
I01
sbs(I3
I8
tp3430
g0
(g120
g2
Ntp3431
Rp3432
(dp3433
g128
I15
sg127
I3
sg126
I8
sg125
F1.7970611603656024
sg124
I01
sbssg79
(dp3434
I0
g0
(g81
g2
Ntp3435
Rp3436
(dp3437
g51
I0
sg89
g90
sg88
F0.0
sg87
F4.924273
sg85
g86
sbsI1
g0
(g81
g2
Ntp3438
Rp3439
(dp3440
g51
I1
sg89
g90
sg88
F0.0
sg87
F4.924273
sg85
g86
sbsI2
g0
(g81
g2
Ntp3441
Rp3442
(dp3443
g51
I2
sg89
g90
sg88
F0.0
sg87
F4.924273
sg85
g86
sbsI3
g0
(g81
g2
Ntp3444
Rp3445
(dp3446
g51
I3
sg89
g90
sg88
F0.0
sg87
F4.924273
sg85
g86
sbsI4
g0
(g81
g2
Ntp3447
Rp3448
(dp3449
g51
I4
sg89
g90
sg88
F0.0
sg87
F4.924273
sg85
g86
sbsI5
g0
(g81
g2
Ntp3450
Rp3451
(dp3452
g51
I5
sg89
g107
sg88
F-0.048057544867421594
sg87
F4.89861134214677
sg85
g106
sbsI6
g0
(g81
g2
Ntp3453
Rp3454
(dp3455
g51
I6
sg89
g107
sg88
F1.0308869690234976
sg87
F3.8707449074877704
sg85
g106
sbsI7
g0
(g81
g2
Ntp3456
Rp3457
(dp3458
g51
I7
sg89
g107
sg88
F-0.1763955669947899
sg87
F5.701394901149772
sg85
g106
sbsI8
g0
(g81
g2
Ntp3459
Rp3460
(dp3461
g51
I8
sg89
g107
sg88
F1.493722561606449
sg87
F5.696037761138754
sg85
g106
sbssg78
F0.0
sg77
I1
sg76
I154
sg75
I120
sg74
I1
sg73
I1
sg72
I4
sg35
(dp3462
I0
g0
(g37
g2
Ntp3463
Rp3464
(dp3465
g51
I0
sg41
(dp3466
g43
g0
(g44
g2
Ntp3467
Rp3468
(dp3469
g51
I1
sg50
F0.01
sg49
F0.0
sg48
F1.0
sbsg52
g0
(g44
g2
Ntp3470
Rp3471
(dp3472
g51
I1
sg50
F0.02
sg49
F0.0
sg48
F1.0
sbsg56
g0
(g44
g2
Ntp3473
Rp3474
(dp3475
g51
I1
sg50
F0.0
sg49
F0.0
sg48
F1.0
sbsg60
g0
(g44
g2
Ntp3476
Rp3477
(dp3478
g51
I1
sg50
F0.2
sg49
F0.0
sg48
F1.0
sbsg64
g0
(g44
g2
Ntp3479
Rp3480
(dp3481
g51
I1
sg50
F0.02
sg49
F0.0
sg48
F1.0
sbsg68
g0
(g44
g2
Ntp3482
Rp3483
(dp3484
g51
I1
sg50
F0.0
sg49
F0.0
sg48
F1.0
sbssbssg33
(dp3485
sg26
(lp3486
g28
aS'a0t0'
p3487
aS'a0t1'
p3488
aS'a0t2'
p3489
aS'a0t3'
p3490
asg20
(lp3491
g22
ag23
aS'a0'
p3492
aS'h0'
p3493
asbag0
(g16
g2
Ntp3494
Rp3495
(dp3496
g51
I114
sg143
g0
(g144
g2
Ntp3497
Rp3498
(dp3499
g210
(dp3500
g212
g156
sg213
g154
ssg192
(dp3501
g194
(lp3502
g198
ag201
asg202
(lp3503
g206
ag209
assg191
I5
sg190
I4
sg189
I0
sg187
g188
sg186
Nsg185
F30.0
sg184
F-30.0
sg183
I00
sg182
F1.0
sg180
(lp3504
g106
asg179
g16
sg178
I32
sg177
F0.95
sg176
F0.1
sg175
F0.1
sg174
F0.05
sg173
F0.05
sg172
F0.8
sg171
F0.5
sg170
F0.8
sg169
F0.5
sg168
F0.8
sg167
F0.1
sg166
F0.5
sg165
F0.0
sg164
F0.01
sg163
I01
sg162
F3.0
sg161
F1.0
sg160
F1.0
sg159
F0.5
sg158
g81
sg157
g120
sg155
g156
sg153
g154
sg152
I01
sg151
I01
sg150
I00
sg149
Nsg148
Nsbsg142
I5
sg141
I4
sg117
(dp3505
g3330
g0
(g120
g2
Ntp3506
Rp3507
(dp3508
g128
I12
sg127
I3
sg126
I5
sg125
F-1.2661634943458704
sg124
I01
sbsg3334
g0
(g120
g2
Ntp3509
Rp3510
(dp3511
g128
I13
sg127
I3
sg126
I6
sg125
F1.5310907456773977
sg124
I01
sbsg3338
g0
(g120
g2
Ntp3512
Rp3513
(dp3514
g128
I14
sg127
I3
sg126
I7
sg125
F0.1986241003616434
sg124
I01
sbsg3342
g0
(g120
g2
Ntp3515
Rp3516
(dp3517
g128
I15
sg127
I3
sg126
I8
sg125
F0.9007461049522723
sg124
I01
sbssg79
(dp3518
I0
g0
(g81
g2
Ntp3519
Rp3520
(dp3521
g51
I0
sg89
g90
sg88
F0.0
sg87
F4.924273
sg85
g86
sbsI1
g0
(g81
g2
Ntp3522
Rp3523
(dp3524
g51
I1
sg89
g90
sg88
F0.0
sg87
F4.924273
sg85
g86
sbsI2
g0
(g81
g2
Ntp3525
Rp3526
(dp3527
g51
I2
sg89
g90
sg88
F0.0
sg87
F4.924273
sg85
g86
sbsI3
g0
(g81
g2
Ntp3528
Rp3529
(dp3530
g51
I3
sg89
g90
sg88
F0.0
sg87
F4.924273
sg85
g86
sbsI4
g0
(g81
g2
Ntp3531
Rp3532
(dp3533
g51
I4
sg89
g90
sg88
F0.0
sg87
F4.924273
sg85
g86
sbsI5
g0
(g81
g2
Ntp3534
Rp3535
(dp3536
g51
I5
sg89
g107
sg88
F-1.1037073655150698
sg87
F5.6716730301632134
sg85
g106
sbsI6
g0
(g81
g2
Ntp3537
Rp3538
(dp3539
g51
I6
sg89
g107
sg88
F0.5754418828018706
sg87
F4.758495733393813
sg85
g106
sbsI7
g0
(g81
g2
Ntp3540
Rp3541
(dp3542
g51
I7
sg89
g107
sg88
F-0.08932016186548736
sg87
F3.8407649713097087
sg85
g106
sbsI8
g0
(g81
g2
Ntp3543
Rp3544
(dp3545
g51
I8
sg89
g107
sg88
F0.9136725071461749
sg87
F4.044440503462018
sg85
g106
sbssg78
F-1.0
sg77
I1
sg76
I78
sg75
I81
sg74
I1
sg73
I1
sg72
I4
sg35
(dp3546
I0
g0
(g37
g2
Ntp3547
Rp3548
(dp3549
g51
I0
sg41
(dp3550
g43
g0
(g44
g2
Ntp3551
Rp3552
(dp3553
g51
I1
sg50
F0.01
sg49
F0.0
sg48
F1.0
sbsg52
g0
(g44
g2
Ntp3554
Rp3555
(dp3556
g51
I1
sg50
F0.02
sg49
F0.0
sg48
F1.0
sbsg56
g0
(g44
g2
Ntp3557
Rp3558
(dp3559
g51
I1
sg50
F0.0
sg49
F0.0
sg48
F1.0
sbsg60
g0
(g44
g2
Ntp3560
Rp3561
(dp3562
g51
I1
sg50
F0.2
sg49
F0.0
sg48
F1.0
sbsg64
g0
(g44
g2
Ntp3563
Rp3564
(dp3565
g51
I1
sg50
F0.02
sg49
F0.0
sg48
F1.0
sbsg68
g0
(g44
g2
Ntp3566
Rp3567
(dp3568
g51
I1
sg50
F0.0
sg49
F0.0
sg48
F1.0
sbssbssg33
(dp3569
sg26
(lp3570
g28
ag3399
ag3400
ag3401
ag3402
asg20
(lp3571
g22
ag23
ag3404
ag3405
asbag0
(g16
g2
Ntp3572
Rp3573
(dp3574
g51
I231
sg143
g0
(g144
g2
Ntp3575
Rp3576
(dp3577
g210
(dp3578
g212
g156
sg213
g154
ssg192
(dp3579
g194
(lp3580
g198
ag201
asg202
(lp3581
g206
ag209
assg191
I5
sg190
I4
sg189
I0
sg187
g188
sg186
Nsg185
F30.0
sg184
F-30.0
sg183
I00
sg182
F1.0
sg180
(lp3582
g106
asg179
g16
sg178
I32
sg177
F0.95
sg176
F0.1
sg175
F0.1
sg174
F0.05
sg173
F0.05
sg172
F0.8
sg171
F0.5
sg170
F0.8
sg169
F0.5
sg168
F0.8
sg167
F0.1
sg166
F0.5
sg165
F0.0
sg164
F0.01
sg163
I01
sg162
F3.0
sg161
F1.0
sg160
F1.0
sg159
F0.5
sg158
g81
sg157
g120
sg155
g156
sg153
g154
sg152
I01
sg151
I01
sg150
I00
sg149
Nsg148
Nsbsg142
I5
sg141
I4
sg117
(dp3583
(I3
I5
tp3584
g0
(g120
g2
Ntp3585
Rp3586
(dp3587
g128
I12
sg127
I3
sg126
I5
sg125
F0.1397607143235684
sg124
I01
sbs(I3
I6
tp3588
g0
(g120
g2
Ntp3589
Rp3590
(dp3591
g128
I13
sg127
I3
sg126
I6
sg125
F1.991411085555323
sg124
I01
sbs(I3
I7
tp3592
g0
(g120
g2
Ntp3593
Rp3594
(dp3595
g128
I14
sg127
I3
sg126
I7
sg125
F0.632197073704462
sg124
I01
sbs(I3
I8
tp3596
g0
(g120
g2
Ntp3597
Rp3598
(dp3599
g128
I15
sg127
I3
sg126
I8
sg125
F2.4403212043640385
sg124
I01
sbs(I3
I9
tp3600
g0
(g120
g2
Ntp3601
Rp3602
(dp3603
g128
I20
sg127
I3
sg126
I9
sg125
F-0.3933925975275991
sg124
I01
sbs(I9
I5
tp3604
g0
(g120
g2
Ntp3605
Rp3606
(dp3607
g128
I23
sg127
I9
sg126
I5
sg125
F-0.9674853483440514
sg124
I01
sbssg79
(dp3608
I0
g0
(g81
g2
Ntp3609
Rp3610
(dp3611
g51
I0
sg89
g90
sg88
F0.0
sg87
F4.924273
sg85
g86
sbsI1
g0
(g81
g2
Ntp3612
Rp3613
(dp3614
g51
I1
sg89
g90
sg88
F0.0
sg87
F4.924273
sg85
g86
sbsI2
g0
(g81
g2
Ntp3615
Rp3616
(dp3617
g51
I2
sg89
g90
sg88
F0.0
sg87
F4.924273
sg85
g86
sbsI3
g0
(g81
g2
Ntp3618
Rp3619
(dp3620
g51
I3
sg89
g90
sg88
F0.0
sg87
F4.924273
sg85
g86
sbsI4
g0
(g81
g2
Ntp3621
Rp3622
(dp3623
g51
I4
sg89
g90
sg88
F0.0
sg87
F4.924273
sg85
g86
sbsI5
g0
(g81
g2
Ntp3624
Rp3625
(dp3626
g51
I5
sg89
g107
sg88
F-0.924304565646394
sg87
F3.8511402715604204
sg85
g106
sbsI6
g0
(g81
g2
Ntp3627
Rp3628
(dp3629
g51
I6
sg89
g107
sg88
F0.26160075263028904
sg87
F3.8089873216586723
sg85
g106
sbsI7
g0
(g81
g2
Ntp3630
Rp3631
(dp3632
g51
I7
sg89
g107
sg88
F-0.1918702912582183
sg87
F4.8435366034103895
sg85
g106
sbsI8
g0
(g81
g2
Ntp3633
Rp3634
(dp3635
g51
I8
sg89
g107
sg88
F1.2116604429936715
sg87
F4.918270815908589
sg85
g106
sbsI9
g0
(g81
g2
Ntp3636
Rp3637
(dp3638
g51
I9
sg89
g852
sg88
F0.9402543585330876
sg87
F4.085957926281622
sg85
g106
sbssg78
F-0.5
sg77
I1
sg76
I158
sg75
I158
sg74
I1
sg73
I1
sg72
I4
sg35
(dp3639
I0
g0
(g37
g2
Ntp3640
Rp3641
(dp3642
g51
I0
sg41
(dp3643
g43
g0
(g44
g2
Ntp3644
Rp3645
(dp3646
g51
I1
sg50
F0.01
sg49
F0.0
sg48
F1.0
sbsg52
g0
(g44
g2
Ntp3647
Rp3648
(dp3649
g51
I1
sg50
F0.02
sg49
F0.0
sg48
F1.0
sbsg56
g0
(g44
g2
Ntp3650
Rp3651
(dp3652
g51
I1
sg50
F0.0
sg49
F0.0
sg48
F1.0
sbsg60
g0
(g44
g2
Ntp3653
Rp3654
(dp3655
g51
I1
sg50
F0.2
sg49
F0.0
sg48
F1.0
sbsg64
g0
(g44
g2
Ntp3656
Rp3657
(dp3658
g51
I1
sg50
F0.02
sg49
F0.0
sg48
F1.0
sbsg68
g0
(g44
g2
Ntp3659
Rp3660
(dp3661
g51
I1
sg50
F0.0
sg49
F0.0
sg48
F1.0
sbssbssg33
(dp3662
sg26
(lp3663
g28
aS'a0t0'
p3664
aS'a0t1'
p3665
aS'a0t2'
p3666
aS'a0t3'
p3667
asg20
(lp3668
g22
ag23
aS'a0'
p3669
aS'h0'
p3670
asbag0
(g16
g2
Ntp3671
Rp3672
(dp3673
g51
I203
sg143
g0
(g144
g2
Ntp3674
Rp3675
(dp3676
g210
(dp3677
g212
g156
sg213
g154
ssg192
(dp3678
g194
(lp3679
g198
ag201
asg202
(lp3680
g206
ag209
assg191
I5
sg190
I4
sg189
I0
sg187
g188
sg186
Nsg185
F30.0
sg184
F-30.0
sg183
I00
sg182
F1.0
sg180
(lp3681
g106
asg179
g16
sg178
I32
sg177
F0.95
sg176
F0.1
sg175
F0.1
sg174
F0.05
sg173
F0.05
sg172
F0.8
sg171
F0.5
sg170
F0.8
sg169
F0.5
sg168
F0.8
sg167
F0.1
sg166
F0.5
sg165
F0.0
sg164
F0.01
sg163
I01
sg162
F3.0
sg161
F1.0
sg160
F1.0
sg159
F0.5
sg158
g81
sg157
g120
sg155
g156
sg153
g154
sg152
I01
sg151
I01
sg150
I00
sg149
Nsg148
Nsbsg142
I5
sg141
I4
sg117
(dp3682
(I3
I5
tp3683
g0
(g120
g2
Ntp3684
Rp3685
(dp3686
g128
I12
sg127
I3
sg126
I5
sg125
F0.29247821323386647
sg124
I01
sbs(I3
I6
tp3687
g0
(g120
g2
Ntp3688
Rp3689
(dp3690
g128
I13
sg127
I3
sg126
I6
sg125
F2.2439699091968377
sg124
I01
sbs(I3
I7
tp3691
g0
(g120
g2
Ntp3692
Rp3693
(dp3694
g128
I14
sg127
I3
sg126
I7
sg125
F0.4546604980217598
sg124
I00
sbs(I3
I8
tp3695
g0
(g120
g2
Ntp3696
Rp3697
(dp3698
g128
I15
sg127
I3
sg126
I8
sg125
F0.6149680305604893
sg124
I01
sbs(I3
I9
tp3699
g0
(g120
g2
Ntp3700
Rp3701
(dp3702
g128
I20
sg127
I3
sg126
I9
sg125
F1.5593629413265275
sg124
I01
sbs(I9
I7
tp3703
g0
(g120
g2
Ntp3704
Rp3705
(dp3706
g128
I21
sg127
I9
sg126
I7
sg125
F-0.3825513356054185
sg124
I01
sbssg79
(dp3707
I0
g0
(g81
g2
Ntp3708
Rp3709
(dp3710
g51
I0
sg89
g90
sg88
F0.0
sg87
F4.924273
sg85
g86
sbsI1
g0
(g81
g2
Ntp3711
Rp3712
(dp3713
g51
I1
sg89
g90
sg88
F0.0
sg87
F4.924273
sg85
g86
sbsI2
g0
(g81
g2
Ntp3714
Rp3715
(dp3716
g51
I2
sg89
g90
sg88
F0.0
sg87
F4.924273
sg85
g86
sbsI3
g0
(g81
g2
Ntp3717
Rp3718
(dp3719
g51
I3
sg89
g90
sg88
F0.0
sg87
F4.924273
sg85
g86
sbsI4
g0
(g81
g2
Ntp3720
Rp3721
(dp3722
g51
I4
sg89
g90
sg88
F0.0
sg87
F4.924273
sg85
g86
sbsI5
g0
(g81
g2
Ntp3723
Rp3724
(dp3725
g51
I5
sg89
g107
sg88
F-1.1851212517175065
sg87
F5.503000572312355
sg85
g106
sbsI6
g0
(g81
g2
Ntp3726
Rp3727
(dp3728
g51
I6
sg89
g107
sg88
F0.10794176714152015
sg87
F4.755472402394396
sg85
g106
sbsI7
g0
(g81
g2
Ntp3729
Rp3730
(dp3731
g51
I7
sg89
g107
sg88
F0.5875176520736145
sg87
F4.0039111854731155
sg85
g106
sbsI8
g0
(g81
g2
Ntp3732
Rp3733
(dp3734
g51
I8
sg89
g107
sg88
F1.429904356135478
sg87
F4.752016194154359
sg85
g106
sbsI9
g0
(g81
g2
Ntp3735
Rp3736
(dp3737
g51
I9
sg89
g852
sg88
F-0.2917165827355202
sg87
F4.6059092013129925
sg85
g106
sbssg78
F-0.5
sg77
I1
sg76
I114
sg75
I114
sg74
I1
sg73
I1
sg72
I4
sg35
(dp3738
I0
g0
(g37
g2
Ntp3739
Rp3740
(dp3741
g51
I0
sg41
(dp3742
g43
g0
(g44
g2
Ntp3743
Rp3744
(dp3745
g51
I1
sg50
F0.01
sg49
F0.0
sg48
F1.0
sbsg52
g0
(g44
g2
Ntp3746
Rp3747
(dp3748
g51
I1
sg50
F0.02
sg49
F0.0
sg48
F1.0
sbsg56
g0
(g44
g2
Ntp3749
Rp3750
(dp3751
g51
I1
sg50
F0.0
sg49
F0.0
sg48
F1.0
sbsg60
g0
(g44
g2
Ntp3752
Rp3753
(dp3754
g51
I1
sg50
F0.2
sg49
F0.0
sg48
F1.0
sbsg64
g0
(g44
g2
Ntp3755
Rp3756
(dp3757
g51
I1
sg50
F0.02
sg49
F0.0
sg48
F1.0
sbsg68
g0
(g44
g2
Ntp3758
Rp3759
(dp3760
g51
I1
sg50
F0.0
sg49
F0.0
sg48
F1.0
sbssbssg33
(dp3761
sg26
(lp3762
g28
aS'a0t0'
p3763
aS'a0t1'
p3764
aS'a0t2'
p3765
aS'a0t3'
p3766
asg20
(lp3767
g22
ag23
aS'a0'
p3768
aS'h0'
p3769
asbag0
(g16
g2
Ntp3770
Rp3771
(dp3772
g51
I203
sg143
g0
(g144
g2
Ntp3773
Rp3774
(dp3775
g210
(dp3776
g212
g156
sg213
g154
ssg192
(dp3777
g194
(lp3778
g198
ag201
asg202
(lp3779
g206
ag209
assg191
I5
sg190
I4
sg189
I0
sg187
g188
sg186
Nsg185
F30.0
sg184
F-30.0
sg183
I00
sg182
F1.0
sg180
(lp3780
g106
asg179
g16
sg178
I32
sg177
F0.95
sg176
F0.1
sg175
F0.1
sg174
F0.05
sg173
F0.05
sg172
F0.8
sg171
F0.5
sg170
F0.8
sg169
F0.5
sg168
F0.8
sg167
F0.1
sg166
F0.5
sg165
F0.0
sg164
F0.01
sg163
I01
sg162
F3.0
sg161
F1.0
sg160
F1.0
sg159
F0.5
sg158
g81
sg157
g120
sg155
g156
sg153
g154
sg152
I01
sg151
I01
sg150
I00
sg149
Nsg148
Nsbsg142
I5
sg141
I4
sg117
(dp3781
g3683
g0
(g120
g2
Ntp3782
Rp3783
(dp3784
g128
I12
sg127
I3
sg126
I5
sg125
F0.29247821323386647
sg124
I01
sbsg3687
g0
(g120
g2
Ntp3785
Rp3786
(dp3787
g128
I13
sg127
I3
sg126
I6
sg125
F2.2439699091968377
sg124
I01
sbsg3691
g0
(g120
g2
Ntp3788
Rp3789
(dp3790
g128
I14
sg127
I3
sg126
I7
sg125
F0.4546604980217598
sg124
I00
sbsg3695
g0
(g120
g2
Ntp3791
Rp3792
(dp3793
g128
I15
sg127
I3
sg126
I8
sg125
F0.6149680305604893
sg124
I01
sbsg3699
g0
(g120
g2
Ntp3794
Rp3795
(dp3796
g128
I20
sg127
I3
sg126
I9
sg125
F1.5593629413265275
sg124
I01
sbsg3703
g0
(g120
g2
Ntp3797
Rp3798
(dp3799
g128
I21
sg127
I9
sg126
I7
sg125
F-0.3825513356054185
sg124
I01
sbssg79
(dp3800
I0
g0
(g81
g2
Ntp3801
Rp3802
(dp3803
g51
I0
sg89
g90
sg88
F0.0
sg87
F4.924273
sg85
g86
sbsI1
g0
(g81
g2
Ntp3804
Rp3805
(dp3806
g51
I1
sg89
g90
sg88
F0.0
sg87
F4.924273
sg85
g86
sbsI2
g0
(g81
g2
Ntp3807
Rp3808
(dp3809
g51
I2
sg89
g90
sg88
F0.0
sg87
F4.924273
sg85
g86
sbsI3
g0
(g81
g2
Ntp3810
Rp3811
(dp3812
g51
I3
sg89
g90
sg88
F0.0
sg87
F4.924273
sg85
g86
sbsI4
g0
(g81
g2
Ntp3813
Rp3814
(dp3815
g51
I4
sg89
g90
sg88
F0.0
sg87
F4.924273
sg85
g86
sbsI5
g0
(g81
g2
Ntp3816
Rp3817
(dp3818
g51
I5
sg89
g107
sg88
F-1.1851212517175065
sg87
F5.503000572312355
sg85
g106
sbsI6
g0
(g81
g2
Ntp3819
Rp3820
(dp3821
g51
I6
sg89
g107
sg88
F0.10794176714152015
sg87
F4.755472402394396
sg85
g106
sbsI7
g0
(g81
g2
Ntp3822
Rp3823
(dp3824
g51
I7
sg89
g107
sg88
F0.5875176520736145
sg87
F4.0039111854731155
sg85
g106
sbsI8
g0
(g81
g2
Ntp3825
Rp3826
(dp3827
g51
I8
sg89
g107
sg88
F1.429904356135478
sg87
F4.752016194154359
sg85
g106
sbsI9
g0
(g81
g2
Ntp3828
Rp3829
(dp3830
g51
I9
sg89
g852
sg88
F-0.2917165827355202
sg87
F4.6059092013129925
sg85
g106
sbssg78
F-3.5
sg77
I1
sg76
I114
sg75
I114
sg74
I1
sg73
I1
sg72
I4
sg35
(dp3831
I0
g0
(g37
g2
Ntp3832
Rp3833
(dp3834
g51
I0
sg41
(dp3835
g43
g0
(g44
g2
Ntp3836
Rp3837
(dp3838
g51
I1
sg50
F0.01
sg49
F0.0
sg48
F1.0
sbsg52
g0
(g44
g2
Ntp3839
Rp3840
(dp3841
g51
I1
sg50
F0.02
sg49
F0.0
sg48
F1.0
sbsg56
g0
(g44
g2
Ntp3842
Rp3843
(dp3844
g51
I1
sg50
F0.0
sg49
F0.0
sg48
F1.0
sbsg60
g0
(g44
g2
Ntp3845
Rp3846
(dp3847
g51
I1
sg50
F0.2
sg49
F0.0
sg48
F1.0
sbsg64
g0
(g44
g2
Ntp3848
Rp3849
(dp3850
g51
I1
sg50
F0.02
sg49
F0.0
sg48
F1.0
sbsg68
g0
(g44
g2
Ntp3851
Rp3852
(dp3853
g51
I1
sg50
F0.0
sg49
F0.0
sg48
F1.0
sbssbssg33
(dp3854
sg26
(lp3855
g28
ag3763
ag3764
ag3765
ag3766
asg20
(lp3856
g22
ag23
ag3768
ag3769
asbag0
(g16
g2
Ntp3857
Rp3858
(dp3859
g51
I325
sg143
g0
(g144
g2
Ntp3860
Rp3861
(dp3862
g210
(dp3863
g212
g156
sg213
g154
ssg192
(dp3864
g194
(lp3865
g198
ag201
asg202
(lp3866
g206
ag209
assg191
I5
sg190
I4
sg189
I0
sg187
g188
sg186
Nsg185
F30.0
sg184
F-30.0
sg183
I00
sg182
F1.0
sg180
(lp3867
g106
asg179
g16
sg178
I32
sg177
F0.95
sg176
F0.1
sg175
F0.1
sg174
F0.05
sg173
F0.05
sg172
F0.8
sg171
F0.5
sg170
F0.8
sg169
F0.5
sg168
F0.8
sg167
F0.1
sg166
F0.5
sg165
F0.0
sg164
F0.01
sg163
I01
sg162
F3.0
sg161
F1.0
sg160
F1.0
sg159
F0.5
sg158
g81
sg157
g120
sg155
g156
sg153
g154
sg152
I01
sg151
I01
sg150
I00
sg149
Nsg148
Nsbsg142
I5
sg141
I4
sg117
(dp3868
(I3
I5
tp3869
g0
(g120
g2
Ntp3870
Rp3871
(dp3872
g128
I12
sg127
I3
sg126
I5
sg125
F-1.100967511547887
sg124
I01
sbs(I3
I6
tp3873
g0
(g120
g2
Ntp3874
Rp3875
(dp3876
g128
I13
sg127
I3
sg126
I6
sg125
F0.6131423938853413
sg124
I01
sbs(I3
I7
tp3877
g0
(g120
g2
Ntp3878
Rp3879
(dp3880
g128
I14
sg127
I3
sg126
I7
sg125
F0.19062125477465292
sg124
I01
sbs(I3
I8
tp3881
g0
(g120
g2
Ntp3882
Rp3883
(dp3884
g128
I15
sg127
I3
sg126
I8
sg125
F0.9896489299462491
sg124
I01
sbssg79
(dp3885
I0
g0
(g81
g2
Ntp3886
Rp3887
(dp3888
g51
I0
sg89
g90
sg88
F0.0
sg87
F4.924273
sg85
g86
sbsI1
g0
(g81
g2
Ntp3889
Rp3890
(dp3891
g51
I1
sg89
g90
sg88
F0.0
sg87
F4.924273
sg85
g86
sbsI2
g0
(g81
g2
Ntp3892
Rp3893
(dp3894
g51
I2
sg89
g90
sg88
F0.0
sg87
F4.924273
sg85
g86
sbsI3
g0
(g81
g2
Ntp3895
Rp3896
(dp3897
g51
I3
sg89
g90
sg88
F0.0
sg87
F4.924273
sg85
g86
sbsI4
g0
(g81
g2
Ntp3898
Rp3899
(dp3900
g51
I4
sg89
g90
sg88
F0.0
sg87
F4.924273
sg85
g86
sbsI5
g0
(g81
g2
Ntp3901
Rp3902
(dp3903
g51
I5
sg89
g107
sg88
F-0.9776490573380401
sg87
F6.266130418499692
sg85
g106
sbsI6
g0
(g81
g2
Ntp3904
Rp3905
(dp3906
g51
I6
sg89
g107
sg88
F1.0099190716930668
sg87
F5.280865710820368
sg85
g106
sbsI7
g0
(g81
g2
Ntp3907
Rp3908
(dp3909
g51
I7
sg89
g107
sg88
F-0.08932016186548736
sg87
F5.783717892903325
sg85
g106
sbsI8
g0
(g81
g2
Ntp3910
Rp3911
(dp3912
g51
I8
sg89
g107
sg88
F0.5650127072907178
sg87
F4.955006087577451
sg85
g106
sbssg78
F-3.5
sg77
I1
sg76
I246
sg75
I271
sg74
I1
sg73
I1
sg72
I4
sg35
(dp3913
I0
g0
(g37
g2
Ntp3914
Rp3915
(dp3916
g51
I0
sg41
(dp3917
g43
g0
(g44
g2
Ntp3918
Rp3919
(dp3920
g51
I1
sg50
F0.01
sg49
F0.0
sg48
F1.0
sbsg52
g0
(g44
g2
Ntp3921
Rp3922
(dp3923
g51
I1
sg50
F0.02
sg49
F0.0
sg48
F1.0
sbsg56
g0
(g44
g2
Ntp3924
Rp3925
(dp3926
g51
I1
sg50
F0.0
sg49
F0.0
sg48
F1.0
sbsg60
g0
(g44
g2
Ntp3927
Rp3928
(dp3929
g51
I1
sg50
F0.2
sg49
F0.0
sg48
F1.0
sbsg64
g0
(g44
g2
Ntp3930
Rp3931
(dp3932
g51
I1
sg50
F0.02
sg49
F0.0
sg48
F1.0
sbsg68
g0
(g44
g2
Ntp3933
Rp3934
(dp3935
g51
I1
sg50
F0.0
sg49
F0.0
sg48
F1.0
sbssbssg33
(dp3936
sg26
(lp3937
g28
aS'a0t0'
p3938
aS'a0t1'
p3939
aS'a0t2'
p3940
aS'a0t3'
p3941
asg20
(lp3942
g22
ag23
aS'a0'
p3943
aS'h0'
p3944
asbag0
(g16
g2
Ntp3945
Rp3946
(dp3947
g51
I271
sg143
g0
(g144
g2
Ntp3948
Rp3949
(dp3950
g210
(dp3951
g212
g156
sg213
g154
ssg192
(dp3952
g194
(lp3953
g198
ag201
asg202
(lp3954
g206
ag209
assg191
I5
sg190
I4
sg189
I0
sg187
g188
sg186
Nsg185
F30.0
sg184
F-30.0
sg183
I00
sg182
F1.0
sg180
(lp3955
g106
asg179
g16
sg178
I32
sg177
F0.95
sg176
F0.1
sg175
F0.1
sg174
F0.05
sg173
F0.05
sg172
F0.8
sg171
F0.5
sg170
F0.8
sg169
F0.5
sg168
F0.8
sg167
F0.1
sg166
F0.5
sg165
F0.0
sg164
F0.01
sg163
I01
sg162
F3.0
sg161
F1.0
sg160
F1.0
sg159
F0.5
sg158
g81
sg157
g120
sg155
g156
sg153
g154
sg152
I01
sg151
I01
sg150
I00
sg149
Nsg148
Nsbsg142
I5
sg141
I4
sg117
(dp3956
(I3
I5
tp3957
g0
(g120
g2
Ntp3958
Rp3959
(dp3960
g128
I12
sg127
I3
sg126
I5
sg125
F-1.0755726511429762
sg124
I01
sbs(I3
I6
tp3961
g0
(g120
g2
Ntp3962
Rp3963
(dp3964
g128
I13
sg127
I3
sg126
I6
sg125
F0.975157909128691
sg124
I01
sbs(I3
I7
tp3965
g0
(g120
g2
Ntp3966
Rp3967
(dp3968
g128
I14
sg127
I3
sg126
I7
sg125
F0.0014064574581892624
sg124
I01
sbs(I3
I8
tp3969
g0
(g120
g2
Ntp3970
Rp3971
(dp3972
g128
I15
sg127
I3
sg126
I8
sg125
F0.46707795344954806
sg124
I01
sbssg79
(dp3973
I0
g0
(g81
g2
Ntp3974
Rp3975
(dp3976
g51
I0
sg89
g90
sg88
F0.0
sg87
F4.924273
sg85
g86
sbsI1
g0
(g81
g2
Ntp3977
Rp3978
(dp3979
g51
I1
sg89
g90
sg88
F0.0
sg87
F4.924273
sg85
g86
sbsI2
g0
(g81
g2
Ntp3980
Rp3981
(dp3982
g51
I2
sg89
g90
sg88
F0.0
sg87
F4.924273
sg85
g86
sbsI3
g0
(g81
g2
Ntp3983
Rp3984
(dp3985
g51
I3
sg89
g90
sg88
F0.0
sg87
F4.924273
sg85
g86
sbsI4
g0
(g81
g2
Ntp3986
Rp3987
(dp3988
g51
I4
sg89
g90
sg88
F0.0
sg87
F4.924273
sg85
g86
sbsI5
g0
(g81
g2
Ntp3989
Rp3990
(dp3991
g51
I5
sg89
g107
sg88
F0.6521251999470083
sg87
F5.244982567504992
sg85
g106
sbsI6
g0
(g81
g2
Ntp3992
Rp3993
(dp3994
g51
I6
sg89
g107
sg88
F0.5835087691659273
sg87
F5.437560375242732
sg85
g106
sbsI7
g0
(g81
g2
Ntp3995
Rp3996
(dp3997
g51
I7
sg89
g107
sg88
F-0.12644461792948355
sg87
F7.085102652432488
sg85
g106
sbsI8
g0
(g81
g2
Ntp3998
Rp3999
(dp4000
g51
I8
sg89
g107
sg88
F0.5650127072907178
sg87
F4.955006087577451
sg85
g106
sbssg78
F-0.5
sg77
I1
sg76
I236
sg75
I195
sg74
I1
sg73
I1
sg72
I4
sg35
(dp4001
I0
g0
(g37
g2
Ntp4002
Rp4003
(dp4004
g51
I0
sg41
(dp4005
g43
g0
(g44
g2
Ntp4006
Rp4007
(dp4008
g51
I1
sg50
F0.01
sg49
F0.0
sg48
F1.0
sbsg52
g0
(g44
g2
Ntp4009
Rp4010
(dp4011
g51
I1
sg50
F0.02
sg49
F0.0
sg48
F1.0
sbsg56
g0
(g44
g2
Ntp4012
Rp4013
(dp4014
g51
I1
sg50
F0.0
sg49
F0.0
sg48
F1.0
sbsg60
g0
(g44
g2
Ntp4015
Rp4016
(dp4017
g51
I1
sg50
F0.2
sg49
F0.0
sg48
F1.0
sbsg64
g0
(g44
g2
Ntp4018
Rp4019
(dp4020
g51
I1
sg50
F0.02
sg49
F0.0
sg48
F1.0
sbsg68
g0
(g44
g2
Ntp4021
Rp4022
(dp4023
g51
I1
sg50
F0.0
sg49
F0.0
sg48
F1.0
sbssbssg33
(dp4024
sg26
(lp4025
g28
aS'a0t0'
p4026
aS'a0t1'
p4027
aS'a0t2'
p4028
aS'a0t3'
p4029
asg20
(lp4030
g22
ag23
aS'a0'
p4031
aS'h0'
p4032
asbag0
(g16
g2
Ntp4033
Rp4034
(dp4035
g51
I365
sg143
g0
(g144
g2
Ntp4036
Rp4037
(dp4038
g210
(dp4039
g212
g156
sg213
g154
ssg192
(dp4040
g194
(lp4041
g198
ag201
asg202
(lp4042
g206
ag209
assg191
I5
sg190
I4
sg189
I0
sg187
g188
sg186
Nsg185
F30.0
sg184
F-30.0
sg183
I00
sg182
F1.0
sg180
(lp4043
g106
asg179
g16
sg178
I32
sg177
F0.95
sg176
F0.1
sg175
F0.1
sg174
F0.05
sg173
F0.05
sg172
F0.8
sg171
F0.5
sg170
F0.8
sg169
F0.5
sg168
F0.8
sg167
F0.1
sg166
F0.5
sg165
F0.0
sg164
F0.01
sg163
I01
sg162
F3.0
sg161
F1.0
sg160
F1.0
sg159
F0.5
sg158
g81
sg157
g120
sg155
g156
sg153
g154
sg152
I01
sg151
I01
sg150
I00
sg149
Nsg148
Nsbsg142
I5
sg141
I4
sg117
(dp4044
(I3
I5
tp4045
g0
(g120
g2
Ntp4046
Rp4047
(dp4048
g128
I12
sg127
I3
sg126
I5
sg125
F-0.440913114886026
sg124
I01
sbs(I3
I6
tp4049
g0
(g120
g2
Ntp4050
Rp4051
(dp4052
g128
I13
sg127
I3
sg126
I6
sg125
F0.9541296353450333
sg124
I01
sbs(I3
I7
tp4053
g0
(g120
g2
Ntp4054
Rp4055
(dp4056
g128
I14
sg127
I3
sg126
I7
sg125
F-0.14089024030316
sg124
I01
sbs(I3
I8
tp4057
g0
(g120
g2
Ntp4058
Rp4059
(dp4060
g128
I15
sg127
I3
sg126
I8
sg125
F-2.63165544691071
sg124
I01
sbssg79
(dp4061
I0
g0
(g81
g2
Ntp4062
Rp4063
(dp4064
g51
I0
sg89
g90
sg88
F0.0
sg87
F4.924273
sg85
g86
sbsI1
g0
(g81
g2
Ntp4065
Rp4066
(dp4067
g51
I1
sg89
g90
sg88
F0.0
sg87
F4.924273
sg85
g86
sbsI2
g0
(g81
g2
Ntp4068
Rp4069
(dp4070
g51
I2
sg89
g90
sg88
F0.0
sg87
F4.924273
sg85
g86
sbsI3
g0
(g81
g2
Ntp4071
Rp4072
(dp4073
g51
I3
sg89
g90
sg88
F0.0
sg87
F4.924273
sg85
g86
sbsI4
g0
(g81
g2
Ntp4074
Rp4075
(dp4076
g51
I4
sg89
g90
sg88
F0.0
sg87
F4.924273
sg85
g86
sbsI5
g0
(g81
g2
Ntp4077
Rp4078
(dp4079
g51
I5
sg89
g107
sg88
F-0.1562183973595156
sg87
F6.294422940966044
sg85
g106
sbsI6
g0
(g81
g2
Ntp4080
Rp4081
(dp4082
g51
I6
sg89
g107
sg88
F0.7851711258728438
sg87
F3.1261689330009315
sg85
g106
sbsI7
g0
(g81
g2
Ntp4083
Rp4084
(dp4085
g51
I7
sg89
g107
sg88
F-0.08932016186548736
sg87
F6.305850139144742
sg85
g106
sbsI8
g0
(g81
g2
Ntp4086
Rp4087
(dp4088
g51
I8
sg89
g107
sg88
F0.5650127072907178
sg87
F3.804912095656611
sg85
g106
sbssg78
F0.5
sg77
I1
sg76
I246
sg75
I271
sg74
I1
sg73
I1
sg72
I4
sg35
(dp4089
I0
g0
(g37
g2
Ntp4090
Rp4091
(dp4092
g51
I0
sg41
(dp4093
g43
g0
(g44
g2
Ntp4094
Rp4095
(dp4096
g51
I1
sg50
F0.01
sg49
F0.0
sg48
F1.0
sbsg52
g0
(g44
g2
Ntp4097
Rp4098
(dp4099
g51
I1
sg50
F0.02
sg49
F0.0
sg48
F1.0
sbsg56
g0
(g44
g2
Ntp4100
Rp4101
(dp4102
g51
I1
sg50
F0.0
sg49
F0.0
sg48
F1.0
sbsg60
g0
(g44
g2
Ntp4103
Rp4104
(dp4105
g51
I1
sg50
F0.2
sg49
F0.0
sg48
F1.0
sbsg64
g0
(g44
g2
Ntp4106
Rp4107
(dp4108
g51
I1
sg50
F0.02
sg49
F0.0
sg48
F1.0
sbsg68
g0
(g44
g2
Ntp4109
Rp4110
(dp4111
g51
I1
sg50
F0.0
sg49
F0.0
sg48
F1.0
sbssbssg33
(dp4112
sg26
(lp4113
g28
aS'a0t0'
p4114
aS'a0t1'
p4115
aS'a0t2'
p4116
aS'a0t3'
p4117
asg20
(lp4118
g22
ag23
aS'a0'
p4119
aS'h0'
p4120
asbag0
(g16
g2
Ntp4121
Rp4122
(dp4123
g51
I400
sg143
g0
(g144
g2
Ntp4124
Rp4125
(dp4126
g210
(dp4127
g212
g156
sg213
g154
ssg192
(dp4128
g194
(lp4129
g198
ag201
asg202
(lp4130
g206
ag209
assg191
I5
sg190
I4
sg189
I0
sg187
g188
sg186
Nsg185
F30.0
sg184
F-30.0
sg183
I00
sg182
F1.0
sg180
(lp4131
g106
asg179
g16
sg178
I32
sg177
F0.95
sg176
F0.1
sg175
F0.1
sg174
F0.05
sg173
F0.05
sg172
F0.8
sg171
F0.5
sg170
F0.8
sg169
F0.5
sg168
F0.8
sg167
F0.1
sg166
F0.5
sg165
F0.0
sg164
F0.01
sg163
I01
sg162
F3.0
sg161
F1.0
sg160
F1.0
sg159
F0.5
sg158
g81
sg157
g120
sg155
g156
sg153
g154
sg152
I01
sg151
I01
sg150
I00
sg149
Nsg148
Nsbsg142
I5
sg141
I4
sg117
(dp4132
(I3
I5
tp4133
g0
(g120
g2
Ntp4134
Rp4135
(dp4136
g128
I12
sg127
I3
sg126
I5
sg125
F-1.6346885046462407
sg124
I01
sbs(I3
I6
tp4137
g0
(g120
g2
Ntp4138
Rp4139
(dp4140
g128
I13
sg127
I3
sg126
I6
sg125
F0.6157956435177329
sg124
I01
sbs(I3
I7
tp4141
g0
(g120
g2
Ntp4142
Rp4143
(dp4144
g128
I14
sg127
I3
sg126
I7
sg125
F0.03785264805357878
sg124
I01
sbs(I3
I8
tp4145
g0
(g120
g2
Ntp4146
Rp4147
(dp4148
g128
I15
sg127
I3
sg126
I8
sg125
F-2.467233266484204
sg124
I01
sbssg79
(dp4149
I0
g0
(g81
g2
Ntp4150
Rp4151
(dp4152
g51
I0
sg89
g90
sg88
F0.0
sg87
F4.924273
sg85
g86
sbsI1
g0
(g81
g2
Ntp4153
Rp4154
(dp4155
g51
I1
sg89
g90
sg88
F0.0
sg87
F4.924273
sg85
g86
sbsI2
g0
(g81
g2
Ntp4156
Rp4157
(dp4158
g51
I2
sg89
g90
sg88
F0.0
sg87
F4.924273
sg85
g86
sbsI3
g0
(g81
g2
Ntp4159
Rp4160
(dp4161
g51
I3
sg89
g90
sg88
F0.0
sg87
F4.924273
sg85
g86
sbsI4
g0
(g81
g2
Ntp4162
Rp4163
(dp4164
g51
I4
sg89
g90
sg88
F0.0
sg87
F4.924273
sg85
g86
sbsI5
g0
(g81
g2
Ntp4165
Rp4166
(dp4167
g51
I5
sg89
g107
sg88
F0.3900252872848523
sg87
F6.525525260305426
sg85
g106
sbsI6
g0
(g81
g2
Ntp4168
Rp4169
(dp4170
g51
I6
sg89
g107
sg88
F-0.44861831107794936
sg87
F4.243070909354996
sg85
g106
sbsI7
g0
(g81
g2
Ntp4171
Rp4172
(dp4173
g51
I7
sg89
g107
sg88
F-0.08932016186548736
sg87
F5.8501379976013475
sg85
g106
sbsI8
g0
(g81
g2
Ntp4174
Rp4175
(dp4176
g51
I8
sg89
g107
sg88
F0.6425627536096381
sg87
F4.370606898218912
sg85
g106
sbssg78
F-1.5
sg77
I1
sg76
I337
sg75
I365
sg74
I1
sg73
I1
sg72
I4
sg35
(dp4177
I0
g0
(g37
g2
Ntp4178
Rp4179
(dp4180
g51
I0
sg41
(dp4181
g43
g0
(g44
g2
Ntp4182
Rp4183
(dp4184
g51
I1
sg50
F0.01
sg49
F0.0
sg48
F1.0
sbsg52
g0
(g44
g2
Ntp4185
Rp4186
(dp4187
g51
I1
sg50
F0.02
sg49
F0.0
sg48
F1.0
sbsg56
g0
(g44
g2
Ntp4188
Rp4189
(dp4190
g51
I1
sg50
F0.0
sg49
F0.0
sg48
F1.0
sbsg60
g0
(g44
g2
Ntp4191
Rp4192
(dp4193
g51
I1
sg50
F0.2
sg49
F0.0
sg48
F1.0
sbsg64
g0
(g44
g2
Ntp4194
Rp4195
(dp4196
g51
I1
sg50
F0.02
sg49
F0.0
sg48
F1.0
sbsg68
g0
(g44
g2
Ntp4197
Rp4198
(dp4199
g51
I1
sg50
F0.0
sg49
F0.0
sg48
F1.0
sbssbssg33
(dp4200
sg26
(lp4201
g28
aS'a0t0'
p4202
aS'a0t1'
p4203
aS'a0t2'
p4204
aS'a0t3'
p4205
asg20
(lp4206
g22
ag23
aS'a0'
p4207
aS'h0'
p4208
asbag0
(g16
g2
Ntp4209
Rp4210
(dp4211
g51
I356
sg143
g0
(g144
g2
Ntp4212
Rp4213
(dp4214
g210
(dp4215
g212
g156
sg213
g154
ssg192
(dp4216
g194
(lp4217
g198
ag201
asg202
(lp4218
g206
ag209
assg191
I5
sg190
I4
sg189
I0
sg187
g188
sg186
Nsg185
F30.0
sg184
F-30.0
sg183
I00
sg182
F1.0
sg180
(lp4219
g106
asg179
g16
sg178
I32
sg177
F0.95
sg176
F0.1
sg175
F0.1
sg174
F0.05
sg173
F0.05
sg172
F0.8
sg171
F0.5
sg170
F0.8
sg169
F0.5
sg168
F0.8
sg167
F0.1
sg166
F0.5
sg165
F0.0
sg164
F0.01
sg163
I01
sg162
F3.0
sg161
F1.0
sg160
F1.0
sg159
F0.5
sg158
g81
sg157
g120
sg155
g156
sg153
g154
sg152
I01
sg151
I01
sg150
I00
sg149
Nsg148
Nsbsg142
I5
sg141
I4
sg117
(dp4220
(I3
I5
tp4221
g0
(g120
g2
Ntp4222
Rp4223
(dp4224
g128
I12
sg127
I3
sg126
I5
sg125
F-0.944909288602074
sg124
I01
sbs(I3
I6
tp4225
g0
(g120
g2
Ntp4226
Rp4227
(dp4228
g128
I13
sg127
I3
sg126
I6
sg125
F1.9609868128695402
sg124
I01
sbs(I3
I7
tp4229
g0
(g120
g2
Ntp4230
Rp4231
(dp4232
g128
I14
sg127
I3
sg126
I7
sg125
F0.0014064574581892624
sg124
I01
sbs(I3
I8
tp4233
g0
(g120
g2
Ntp4234
Rp4235
(dp4236
g128
I15
sg127
I3
sg126
I8
sg125
F2.5747621758290755
sg124
I01
sbssg79
(dp4237
I0
g0
(g81
g2
Ntp4238
Rp4239
(dp4240
g51
I0
sg89
g90
sg88
F0.0
sg87
F4.924273
sg85
g86
sbsI1
g0
(g81
g2
Ntp4241
Rp4242
(dp4243
g51
I1
sg89
g90
sg88
F0.0
sg87
F4.924273
sg85
g86
sbsI2
g0
(g81
g2
Ntp4244
Rp4245
(dp4246
g51
I2
sg89
g90
sg88
F0.0
sg87
F4.924273
sg85
g86
sbsI3
g0
(g81
g2
Ntp4247
Rp4248
(dp4249
g51
I3
sg89
g90
sg88
F0.0
sg87
F4.924273
sg85
g86
sbsI4
g0
(g81
g2
Ntp4250
Rp4251
(dp4252
g51
I4
sg89
g90
sg88
F0.0
sg87
F4.924273
sg85
g86
sbsI5
g0
(g81
g2
Ntp4253
Rp4254
(dp4255
g51
I5
sg89
g107
sg88
F0.5334524916289701
sg87
F3.4275335230087203
sg85
g106
sbsI6
g0
(g81
g2
Ntp4256
Rp4257
(dp4258
g51
I6
sg89
g107
sg88
F0.5697708188272412
sg87
F2.7846596211737857
sg85
g106
sbsI7
g0
(g81
g2
Ntp4259
Rp4260
(dp4261
g51
I7
sg89
g107
sg88
F-0.06612332106921515
sg87
F5.314519215646771
sg85
g106
sbsI8
g0
(g81
g2
Ntp4262
Rp4263
(dp4264
g51
I8
sg89
g107
sg88
F0.5650127072907178
sg87
F3.7590292357193196
sg85
g106
sbssg78
F-0.5
sg77
I1
sg76
I290
sg75
I309
sg74
I1
sg73
I1
sg72
I4
sg35
(dp4265
I0
g0
(g37
g2
Ntp4266
Rp4267
(dp4268
g51
I0
sg41
(dp4269
g43
g0
(g44
g2
Ntp4270
Rp4271
(dp4272
g51
I1
sg50
F0.01
sg49
F0.0
sg48
F1.0
sbsg52
g0
(g44
g2
Ntp4273
Rp4274
(dp4275
g51
I1
sg50
F0.02
sg49
F0.0
sg48
F1.0
sbsg56
g0
(g44
g2
Ntp4276
Rp4277
(dp4278
g51
I1
sg50
F0.0
sg49
F0.0
sg48
F1.0
sbsg60
g0
(g44
g2
Ntp4279
Rp4280
(dp4281
g51
I1
sg50
F0.2
sg49
F0.0
sg48
F1.0
sbsg64
g0
(g44
g2
Ntp4282
Rp4283
(dp4284
g51
I1
sg50
F0.02
sg49
F0.0
sg48
F1.0
sbsg68
g0
(g44
g2
Ntp4285
Rp4286
(dp4287
g51
I1
sg50
F0.0
sg49
F0.0
sg48
F1.0
sbssbssg33
(dp4288
sg26
(lp4289
g28
aS'a0t0'
p4290
aS'a0t1'
p4291
aS'a0t2'
p4292
aS'a0t3'
p4293
asg20
(lp4294
g22
ag23
aS'a0'
p4295
aS'h0'
p4296
asbag0
(g16
g2
Ntp4297
Rp4298
(dp4299
g51
I457
sg143
g0
(g144
g2
Ntp4300
Rp4301
(dp4302
g210
(dp4303
g212
g156
sg213
g154
ssg192
(dp4304
g194
(lp4305
g198
ag201
asg202
(lp4306
g206
ag209
assg191
I5
sg190
I4
sg189
I0
sg187
g188
sg186
Nsg185
F30.0
sg184
F-30.0
sg183
I00
sg182
F1.0
sg180
(lp4307
g106
asg179
g16
sg178
I32
sg177
F0.95
sg176
F0.1
sg175
F0.1
sg174
F0.05
sg173
F0.05
sg172
F0.8
sg171
F0.5
sg170
F0.8
sg169
F0.5
sg168
F0.8
sg167
F0.1
sg166
F0.5
sg165
F0.0
sg164
F0.01
sg163
I01
sg162
F3.0
sg161
F1.0
sg160
F1.0
sg159
F0.5
sg158
g81
sg157
g120
sg155
g156
sg153
g154
sg152
I01
sg151
I01
sg150
I00
sg149
Nsg148
Nsbsg142
I5
sg141
I4
sg117
(dp4308
(I3
I5
tp4309
g0
(g120
g2
Ntp4310
Rp4311
(dp4312
g128
I12
sg127
I3
sg126
I5
sg125
F-0.9065434285001495
sg124
I01
sbs(I3
I6
tp4313
g0
(g120
g2
Ntp4314
Rp4315
(dp4316
g128
I13
sg127
I3
sg126
I6
sg125
F0.6353332239373687
sg124
I01
sbs(I3
I7
tp4317
g0
(g120
g2
Ntp4318
Rp4319
(dp4320
g128
I14
sg127
I3
sg126
I7
sg125
F-0.17366949625403377
sg124
I01
sbs(I3
I8
tp4321
g0
(g120
g2
Ntp4322
Rp4323
(dp4324
g128
I15
sg127
I3
sg126
I8
sg125
F2.2061677136815145
sg124
I01
sbssg79
(dp4325
I0
g0
(g81
g2
Ntp4326
Rp4327
(dp4328
g51
I0
sg89
g90
sg88
F0.0
sg87
F4.924273
sg85
g86
sbsI1
g0
(g81
g2
Ntp4329
Rp4330
(dp4331
g51
I1
sg89
g90
sg88
F0.0
sg87
F4.924273
sg85
g86
sbsI2
g0
(g81
g2
Ntp4332
Rp4333
(dp4334
g51
I2
sg89
g90
sg88
F0.0
sg87
F4.924273
sg85
g86
sbsI3
g0
(g81
g2
Ntp4335
Rp4336
(dp4337
g51
I3
sg89
g90
sg88
F0.0
sg87
F4.924273
sg85
g86
sbsI4
g0
(g81
g2
Ntp4338
Rp4339
(dp4340
g51
I4
sg89
g90
sg88
F0.0
sg87
F4.924273
sg85
g86
sbsI5
g0
(g81
g2
Ntp4341
Rp4342
(dp4343
g51
I5
sg89
g107
sg88
F1.0835788054059532
sg87
F5.675696555496328
sg85
g106
sbsI6
g0
(g81
g2
Ntp4344
Rp4345
(dp4346
g51
I6
sg89
g107
sg88
F0.5804481283168206
sg87
F3.179264144611028
sg85
g106
sbsI7
g0
(g81
g2
Ntp4347
Rp4348
(dp4349
g51
I7
sg89
g107
sg88
F-0.05326675038962227
sg87
F4.8366795738275945
sg85
g106
sbsI8
g0
(g81
g2
Ntp4350
Rp4351
(dp4352
g51
I8
sg89
g107
sg88
F-0.8941538101092741
sg87
F3.614474599578485
sg85
g106
sbssg78
F-3.0
sg77
I1
sg76
I398
sg75
I376
sg74
I1
sg73
I1
sg72
I4
sg35
(dp4353
I0
g0
(g37
g2
Ntp4354
Rp4355
(dp4356
g51
I0
sg41
(dp4357
g43
g0
(g44
g2
Ntp4358
Rp4359
(dp4360
g51
I1
sg50
F0.01
sg49
F0.0
sg48
F1.0
sbsg52
g0
(g44
g2
Ntp4361
Rp4362
(dp4363
g51
I1
sg50
F0.02
sg49
F0.0
sg48
F1.0
sbsg56
g0
(g44
g2
Ntp4364
Rp4365
(dp4366
g51
I1
sg50
F0.0
sg49
F0.0
sg48
F1.0
sbsg60
g0
(g44
g2
Ntp4367
Rp4368
(dp4369
g51
I1
sg50
F0.2
sg49
F0.0
sg48
F1.0
sbsg64
g0
(g44
g2
Ntp4370
Rp4371
(dp4372
g51
I1
sg50
F0.02
sg49
F0.0
sg48
F1.0
sbsg68
g0
(g44
g2
Ntp4373
Rp4374
(dp4375
g51
I1
sg50
F0.0
sg49
F0.0
sg48
F1.0
sbssbssg33
(dp4376
sg26
(lp4377
g28
aS'a0t0'
p4378
aS'a0t1'
p4379
aS'a0t2'
p4380
aS'a0t3'
p4381
asg20
(lp4382
g22
ag23
aS'a0'
p4383
aS'h0'
p4384
asbag0
(g16
g2
Ntp4385
Rp4386
(dp4387
g51
I356
sg143
g0
(g144
g2
Ntp4388
Rp4389
(dp4390
g210
(dp4391
g212
g156
sg213
g154
ssg192
(dp4392
g194
(lp4393
g198
ag201
asg202
(lp4394
g206
ag209
assg191
I5
sg190
I4
sg189
I0
sg187
g188
sg186
Nsg185
F30.0
sg184
F-30.0
sg183
I00
sg182
F1.0
sg180
(lp4395
g106
asg179
g16
sg178
I32
sg177
F0.95
sg176
F0.1
sg175
F0.1
sg174
F0.05
sg173
F0.05
sg172
F0.8
sg171
F0.5
sg170
F0.8
sg169
F0.5
sg168
F0.8
sg167
F0.1
sg166
F0.5
sg165
F0.0
sg164
F0.01
sg163
I01
sg162
F3.0
sg161
F1.0
sg160
F1.0
sg159
F0.5
sg158
g81
sg157
g120
sg155
g156
sg153
g154
sg152
I01
sg151
I01
sg150
I00
sg149
Nsg148
Nsbsg142
I5
sg141
I4
sg117
(dp4396
g4221
g0
(g120
g2
Ntp4397
Rp4398
(dp4399
g128
I12
sg127
I3
sg126
I5
sg125
F-0.944909288602074
sg124
I01
sbsg4225
g0
(g120
g2
Ntp4400
Rp4401
(dp4402
g128
I13
sg127
I3
sg126
I6
sg125
F1.9609868128695402
sg124
I01
sbsg4229
g0
(g120
g2
Ntp4403
Rp4404
(dp4405
g128
I14
sg127
I3
sg126
I7
sg125
F0.0014064574581892624
sg124
I01
sbsg4233
g0
(g120
g2
Ntp4406
Rp4407
(dp4408
g128
I15
sg127
I3
sg126
I8
sg125
F2.5747621758290755
sg124
I01
sbssg79
(dp4409
I0
g0
(g81
g2
Ntp4410
Rp4411
(dp4412
g51
I0
sg89
g90
sg88
F0.0
sg87
F4.924273
sg85
g86
sbsI1
g0
(g81
g2
Ntp4413
Rp4414
(dp4415
g51
I1
sg89
g90
sg88
F0.0
sg87
F4.924273
sg85
g86
sbsI2
g0
(g81
g2
Ntp4416
Rp4417
(dp4418
g51
I2
sg89
g90
sg88
F0.0
sg87
F4.924273
sg85
g86
sbsI3
g0
(g81
g2
Ntp4419
Rp4420
(dp4421
g51
I3
sg89
g90
sg88
F0.0
sg87
F4.924273
sg85
g86
sbsI4
g0
(g81
g2
Ntp4422
Rp4423
(dp4424
g51
I4
sg89
g90
sg88
F0.0
sg87
F4.924273
sg85
g86
sbsI5
g0
(g81
g2
Ntp4425
Rp4426
(dp4427
g51
I5
sg89
g107
sg88
F0.5334524916289701
sg87
F3.4275335230087203
sg85
g106
sbsI6
g0
(g81
g2
Ntp4428
Rp4429
(dp4430
g51
I6
sg89
g107
sg88
F0.5697708188272412
sg87
F2.7846596211737857
sg85
g106
sbsI7
g0
(g81
g2
Ntp4431
Rp4432
(dp4433
g51
I7
sg89
g107
sg88
F-0.06612332106921515
sg87
F5.314519215646771
sg85
g106
sbsI8
g0
(g81
g2
Ntp4434
Rp4435
(dp4436
g51
I8
sg89
g107
sg88
F0.5650127072907178
sg87
F3.7590292357193196
sg85
g106
sbssg78
F-1.0
sg77
I1
sg76
I290
sg75
I309
sg74
I1
sg73
I1
sg72
I4
sg35
(dp4437
I0
g0
(g37
g2
Ntp4438
Rp4439
(dp4440
g51
I0
sg41
(dp4441
g43
g0
(g44
g2
Ntp4442
Rp4443
(dp4444
g51
I1
sg50
F0.01
sg49
F0.0
sg48
F1.0
sbsg52
g0
(g44
g2
Ntp4445
Rp4446
(dp4447
g51
I1
sg50
F0.02
sg49
F0.0
sg48
F1.0
sbsg56
g0
(g44
g2
Ntp4448
Rp4449
(dp4450
g51
I1
sg50
F0.0
sg49
F0.0
sg48
F1.0
sbsg60
g0
(g44
g2
Ntp4451
Rp4452
(dp4453
g51
I1
sg50
F0.2
sg49
F0.0
sg48
F1.0
sbsg64
g0
(g44
g2
Ntp4454
Rp4455
(dp4456
g51
I1
sg50
F0.02
sg49
F0.0
sg48
F1.0
sbsg68
g0
(g44
g2
Ntp4457
Rp4458
(dp4459
g51
I1
sg50
F0.0
sg49
F0.0
sg48
F1.0
sbssbssg33
(dp4460
sg26
(lp4461
g28
ag4290
ag4291
ag4292
ag4293
asg20
(lp4462
g22
ag23
ag4295
ag4296
asbag0
(g16
g2
Ntp4463
Rp4464
(dp4465
g51
I515
sg143
g0
(g144
g2
Ntp4466
Rp4467
(dp4468
g210
(dp4469
g212
g156
sg213
g154
ssg192
(dp4470
g194
(lp4471
g198
ag201
asg202
(lp4472
g206
ag209
assg191
I5
sg190
I4
sg189
I0
sg187
g188
sg186
Nsg185
F30.0
sg184
F-30.0
sg183
I00
sg182
F1.0
sg180
(lp4473
g106
asg179
g16
sg178
I32
sg177
F0.95
sg176
F0.1
sg175
F0.1
sg174
F0.05
sg173
F0.05
sg172
F0.8
sg171
F0.5
sg170
F0.8
sg169
F0.5
sg168
F0.8
sg167
F0.1
sg166
F0.5
sg165
F0.0
sg164
F0.01
sg163
I01
sg162
F3.0
sg161
F1.0
sg160
F1.0
sg159
F0.5
sg158
g81
sg157
g120
sg155
g156
sg153
g154
sg152
I01
sg151
I01
sg150
I00
sg149
Nsg148
Nsbsg142
I5
sg141
I4
sg117
(dp4474
g278
g0
(g120
g2
Ntp4475
Rp4476
(dp4477
g128
I12
sg127
I3
sg126
I5
sg125
F-1.2832425057575692
sg124
I01
sbsg282
g0
(g120
g2
Ntp4478
Rp4479
(dp4480
g128
I13
sg127
I3
sg126
I6
sg125
F1.9609868128695402
sg124
I01
sbsg286
g0
(g120
g2
Ntp4481
Rp4482
(dp4483
g128
I14
sg127
I3
sg126
I7
sg125
F1.3295193610286968
sg124
I01
sbsg290
g0
(g120
g2
Ntp4484
Rp4485
(dp4486
g128
I15
sg127
I3
sg126
I8
sg125
F0.42675991802624935
sg124
I01
sbssg79
(dp4487
I0
g0
(g81
g2
Ntp4488
Rp4489
(dp4490
g51
I0
sg89
g90
sg88
F0.0
sg87
F4.924273
sg85
g86
sbsI1
g0
(g81
g2
Ntp4491
Rp4492
(dp4493
g51
I1
sg89
g90
sg88
F0.0
sg87
F4.924273
sg85
g86
sbsI2
g0
(g81
g2
Ntp4494
Rp4495
(dp4496
g51
I2
sg89
g90
sg88
F0.0
sg87
F4.924273
sg85
g86
sbsI3
g0
(g81
g2
Ntp4497
Rp4498
(dp4499
g51
I3
sg89
g90
sg88
F0.0
sg87
F4.924273
sg85
g86
sbsI4
g0
(g81
g2
Ntp4500
Rp4501
(dp4502
g51
I4
sg89
g90
sg88
F0.0
sg87
F4.924273
sg85
g86
sbsI5
g0
(g81
g2
Ntp4503
Rp4504
(dp4505
g51
I5
sg89
g107
sg88
F0.3366163456584379
sg87
F3.839379357667004
sg85
g106
sbsI6
g0
(g81
g2
Ntp4506
Rp4507
(dp4508
g51
I6
sg89
g107
sg88
F-0.2745367697528084
sg87
F2.9322620488853666
sg85
g106
sbsI7
g0
(g81
g2
Ntp4509
Rp4510
(dp4511
g51
I7
sg89
g107
sg88
F-0.20951237111676554
sg87
F3.3115115698150315
sg85
g106
sbsI8
g0
(g81
g2
Ntp4512
Rp4513
(dp4514
g51
I8
sg89
g107
sg88
F1.0123220181841848
sg87
F2.6833754799841945
sg85
g106
sbssg78
F-1.0
sg77
I1
sg76
I356
sg75
I469
sg74
I1
sg73
I1
sg72
I4
sg35
(dp4515
I0
g0
(g37
g2
Ntp4516
Rp4517
(dp4518
g51
I0
sg41
(dp4519
g43
g0
(g44
g2
Ntp4520
Rp4521
(dp4522
g51
I1
sg50
F0.01
sg49
F0.0
sg48
F1.0
sbsg52
g0
(g44
g2
Ntp4523
Rp4524
(dp4525
g51
I1
sg50
F0.02
sg49
F0.0
sg48
F1.0
sbsg56
g0
(g44
g2
Ntp4526
Rp4527
(dp4528
g51
I1
sg50
F0.0
sg49
F0.0
sg48
F1.0
sbsg60
g0
(g44
g2
Ntp4529
Rp4530
(dp4531
g51
I1
sg50
F0.2
sg49
F0.0
sg48
F1.0
sbsg64
g0
(g44
g2
Ntp4532
Rp4533
(dp4534
g51
I1
sg50
F0.02
sg49
F0.0
sg48
F1.0
sbsg68
g0
(g44
g2
Ntp4535
Rp4536
(dp4537
g51
I1
sg50
F0.0
sg49
F0.0
sg48
F1.0
sbssbssg33
(dp4538
sg26
(lp4539
g28
ag221
ag222
ag223
ag224
asg20
(lp4540
g22
ag23
ag218
ag219
asbag0
(g16
g2
Ntp4541
Rp4542
(dp4543
g51
I468
sg143
g0
(g144
g2
Ntp4544
Rp4545
(dp4546
g210
(dp4547
g212
g156
sg213
g154
ssg192
(dp4548
g194
(lp4549
g198
ag201
asg202
(lp4550
g206
ag209
assg191
I5
sg190
I4
sg189
I0
sg187
g188
sg186
Nsg185
F30.0
sg184
F-30.0
sg183
I00
sg182
F1.0
sg180
(lp4551
g106
asg179
g16
sg178
I32
sg177
F0.95
sg176
F0.1
sg175
F0.1
sg174
F0.05
sg173
F0.05
sg172
F0.8
sg171
F0.5
sg170
F0.8
sg169
F0.5
sg168
F0.8
sg167
F0.1
sg166
F0.5
sg165
F0.0
sg164
F0.01
sg163
I01
sg162
F3.0
sg161
F1.0
sg160
F1.0
sg159
F0.5
sg158
g81
sg157
g120
sg155
g156
sg153
g154
sg152
I01
sg151
I01
sg150
I00
sg149
Nsg148
Nsbsg142
I5
sg141
I4
sg117
(dp4552
g119
g0
(g120
g2
Ntp4553
Rp4554
(dp4555
g128
I12
sg127
I3
sg126
I5
sg125
F-1.3205686606622702
sg124
I01
sbsg129
g0
(g120
g2
Ntp4556
Rp4557
(dp4558
g128
I13
sg127
I3
sg126
I6
sg125
F2.2768256054723404
sg124
I01
sbsg133
g0
(g120
g2
Ntp4559
Rp4560
(dp4561
g128
I14
sg127
I3
sg126
I7
sg125
F0.48612539534981963
sg124
I01
sbsg137
g0
(g120
g2
Ntp4562
Rp4563
(dp4564
g128
I15
sg127
I3
sg126
I8
sg125
F0.9679355615358027
sg124
I01
sbssg79
(dp4565
I0
g0
(g81
g2
Ntp4566
Rp4567
(dp4568
g51
I0
sg89
g90
sg88
F0.0
sg87
F4.924273
sg85
g86
sbsI1
g0
(g81
g2
Ntp4569
Rp4570
(dp4571
g51
I1
sg89
g90
sg88
F0.0
sg87
F4.924273
sg85
g86
sbsI2
g0
(g81
g2
Ntp4572
Rp4573
(dp4574
g51
I2
sg89
g90
sg88
F0.0
sg87
F4.924273
sg85
g86
sbsI3
g0
(g81
g2
Ntp4575
Rp4576
(dp4577
g51
I3
sg89
g90
sg88
F0.0
sg87
F4.924273
sg85
g86
sbsI4
g0
(g81
g2
Ntp4578
Rp4579
(dp4580
g51
I4
sg89
g90
sg88
F0.0
sg87
F4.924273
sg85
g86
sbsI5
g0
(g81
g2
Ntp4581
Rp4582
(dp4583
g51
I5
sg89
g107
sg88
F0.286105376384889
sg87
F3.245812900517733
sg85
g106
sbsI6
g0
(g81
g2
Ntp4584
Rp4585
(dp4586
g51
I6
sg89
g107
sg88
F-0.17882787337350803
sg87
F2.778655650045682
sg85
g106
sbsI7
g0
(g81
g2
Ntp4587
Rp4588
(dp4589
g51
I7
sg89
g107
sg88
F-0.192236660337454
sg87
F4.54103384342227
sg85
g106
sbsI8
g0
(g81
g2
Ntp4590
Rp4591
(dp4592
g51
I8
sg89
g107
sg88
F-0.2704843158860311
sg87
F3.590587688763054
sg85
g106
sbssg78
F-3.0
sg77
I1
sg76
I463
sg75
I463
sg74
I1
sg73
I1
sg72
I4
sg35
(dp4593
I0
g0
(g37
g2
Ntp4594
Rp4595
(dp4596
g51
I0
sg41
(dp4597
g43
g0
(g44
g2
Ntp4598
Rp4599
(dp4600
g51
I1
sg50
F0.01
sg49
F0.0
sg48
F1.0
sbsg52
g0
(g44
g2
Ntp4601
Rp4602
(dp4603
g51
I1
sg50
F0.02
sg49
F0.0
sg48
F1.0
sbsg56
g0
(g44
g2
Ntp4604
Rp4605
(dp4606
g51
I1
sg50
F0.0
sg49
F0.0
sg48
F1.0
sbsg60
g0
(g44
g2
Ntp4607
Rp4608
(dp4609
g51
I1
sg50
F0.2
sg49
F0.0
sg48
F1.0
sbsg64
g0
(g44
g2
Ntp4610
Rp4611
(dp4612
g51
I1
sg50
F0.02
sg49
F0.0
sg48
F1.0
sbsg68
g0
(g44
g2
Ntp4613
Rp4614
(dp4615
g51
I1
sg50
F0.0
sg49
F0.0
sg48
F1.0
sbssbssg33
(dp4616
sg26
(lp4617
g28
ag29
ag30
ag31
ag32
asg20
(lp4618
g22
ag23
ag24
ag25
asbasbag0
(cneat.reporting
StdOutReporter
p4619
g2
Ntp4620
Rp4621
(dp4622
S'generation_start_time'
p4623
F1464627426.372766
sg7
I19
sbasbsS'species_fitness_func'
p4624
cneat.stagnation
species_mean_fitness
p4625
sS'species_fitness'
p4626
g197
sS'max_stagnation'
p4627
I10
sbsS'innovation_indexer'
p4628
g0
(cneat.indexer
InnovationIndexer
p4629
g2
Ntp4630
Rp4631
(dp4632
S'innovations'
p4633
(dp4634
(I4
I5
tp4635
I0
s(I4
I6
tp4636
I1
s(I4
I7
tp4637
I2
s(I4
I8
tp4638
I3
s(I1
I5
tp4639
I4
s(I1
I6
tp4640
I5
s(I1
I7
tp4641
I6
s(I1
I8
tp4642
I7
s(I0
I5
tp4643
I8
s(I0
I6
tp4644
I9
s(I0
I7
tp4645
I10
s(I0
I8
tp4646
I11
s(I3
I5
tp4647
I12
s(I3
I6
tp4648
I13
s(I3
I7
tp4649
I14
s(I3
I8
tp4650
I15
s(I2
I5
tp4651
I16
s(I2
I6
tp4652
I17
s(I2
I7
tp4653
I18
s(I2
I8
tp4654
I19
s(I3
I9
tp4655
I20
s(I9
I7
tp4656
I21
s(I1
I9
tp4657
I22
s(I9
I5
tp4658
I23
s(I5
I7
tp4659
I24
s(I7
I6
tp4660
I25
s(I9
I6
tp4661
I26
s(I9
I9
tp4662
I27
s(I4
I9
tp4663
I28
s(I3
I10
tp4664
I29
s(I10
I7
tp4665
I30
s(I5
I6
tp4666
I31
s(I9
I10
tp4667
I32
s(I10
I5
tp4668
I33
s(I5
I9
tp4669
I34
s(I9
I8
tp4670
I35
s(I10
I8
tp4671
I36
s(I6
I7
tp4672
I37
s(I7
I7
tp4673
I38
s(I7
I8
tp4674
I39
s(I8
I7
tp4675
I40
s(I10
I6
tp4676
I41
s(I7
I5
tp4677
I42
s(I8
I6
tp4678
I43
s(I5
I5
tp4679
I44
s(I8
I8
tp4680
I45
s(I6
I6
tp4681
I46
ssS'indexer'
p4682
g0
(cneat.indexer
Indexer
p4683
g2
Ntp4684
Rp4685
(dp4686
S'next_id'
p4687
I47
sbsbsS'genome_indexer'
p4688
g0
(g4683
g2
Ntp4689
Rp4690
(dp4691
g4687
I573
sbsg2801
g2804
sS'survival_threshold'
p4692
F0.2
sS'elitism'
p4693
I5
sbsg4628
g4631
sg4688
g4690
sS'species_indexer'
p4694
g0
(g4683
g2
Ntp4695
Rp4696
(dp4697
g4687
I2
sbsg143
g146
sS'statistics'
p4698
g2809
sg2801
g2804
sb.